///////////////////////////////////////////////////////////////////////////////
//
// IAR ANSI C/C++ Compiler V8.30.1.114/W32 for ARM        07/May/2021  14:21:39
// Copyright 1999-2018 IAR Systems AB.
//
//    Cpu mode     =  thumb
//    Endian       =  little
//    Source file  =  
//        C:\Users\PLT\Desktop\mksRobinLite_nano\Middlewares\Third_Party\Marlin\ultralcd.cpp
//    Command line =  
//        -f C:\Users\PLT\AppData\Local\Temp\EW1F7.tmp
//        (C:\Users\PLT\Desktop\mksRobinLite_nano\Middlewares\Third_Party\Marlin\ultralcd.cpp
//        -D USE_HAL_DRIVER -D STM32F103xE -D MKS_ROBIN -D MARLIN -D __arm__ -D
//        USE_MKS_WIFI --preprocess=s
//        C:\Users\PLT\Desktop\mksRobinLite_nano\EWARM\mksRobinLite\List -lC
//        C:\Users\PLT\Desktop\mksRobinLite_nano\EWARM\mksRobinLite\List -lA
//        C:\Users\PLT\Desktop\mksRobinLite_nano\EWARM\mksRobinLite\List
//        --diag_suppress Pa050 -o
//        C:\Users\PLT\Desktop\mksRobinLite_nano\EWARM\mksRobinLite\Obj
//        --no_unroll --no_inline --no_tbaa --no_scheduling --debug
//        --endian=little --cpu=Cortex-M3 -e --char_is_signed --fpu=None
//        --dlib_config "D:\Program Files (x86)\IAR Systems\Embedded Workbench
//        8.1\arm\inc\c\DLib_Config_Full.h" -I
//        C:\Users\PLT\Desktop\mksRobinLite_nano\EWARM/../Inc\ -I
//        C:\Users\PLT\Desktop\mksRobinLite_nano\EWARM/../Src\ -I
//        C:\Users\PLT\Desktop\mksRobinLite_nano\EWARM/../Drivers/STM32F1xx_HAL_Driver/Inc\
//        -I
//        C:\Users\PLT\Desktop\mksRobinLite_nano\EWARM/../Drivers/STM32F1xx_HAL_Driver/Inc/Legacy\
//        -I
//        C:\Users\PLT\Desktop\mksRobinLite_nano\EWARM/../Drivers/STM32F10x_StdPeriph_Driver/Inc\
//        -I
//        C:\Users\PLT\Desktop\mksRobinLite_nano\EWARM/../Drivers/CMSIS/Device/ST/STM32F1xx/Include\
//        -I
//        C:\Users\PLT\Desktop\mksRobinLite_nano\EWARM/../Drivers/CMSIS/Include\
//        -I
//        C:\Users\PLT\Desktop\mksRobinLite_nano\EWARM/../Drivers/BSP/STM32MKS-3dPrinter\
//        -I
//        C:\Users\PLT\Desktop\mksRobinLite_nano\EWARM/../Drivers/BSP/Components/Common\
//        -I
//        C:\Users\PLT\Desktop\mksRobinLite_nano\EWARM/../Drivers/BSP/Components/l6474\
//        -I
//        C:\Users\PLT\Desktop\mksRobinLite_nano\EWARM/../Drivers/BSP/Components/at24cxx\
//        -I
//        C:\Users\PLT\Desktop\mksRobinLite_nano\EWARM/../Drivers/BSP/Components/w25qxx\
//        -I
//        C:\Users\PLT\Desktop\mksRobinLite_nano\EWARM/../Drivers/BSP/MotorControl\
//        -I
//        C:\Users\PLT\Desktop\mksRobinLite_nano\EWARM/../Middlewares/Third_Party/FatFs/src\
//        -I
//        C:\Users\PLT\Desktop\mksRobinLite_nano\EWARM/../Middlewares/Third_Party/FatFs/src/drivers\
//        -I
//        C:\Users\PLT\Desktop\mksRobinLite_nano\EWARM/../Middlewares/Third_Party/Marlin\
//        -I
//        C:\Users\PLT\Desktop\mksRobinLite_nano\EWARM/../Middlewares/Third_Party/u8glib_arm_v1.17/src\
//        -I
//        C:\Users\PLT\Desktop\mksRobinLite_nano\EWARM/../Middlewares/arduino\
//        -I
//        C:\Users\PLT\Desktop\mksRobinLite_nano\EWARM/../Middlewares/arduino/avr\
//        -I C:\Users\PLT\Desktop\mksRobinLite_nano\EWARM/../Inc/Logo\ -Om
//        --c++ --no_exceptions --no_rtti -I "D:\Program Files (x86)\IAR
//        Systems\Embedded Workbench 8.1\arm\CMSIS\Core\Include\" -I
//        "D:\Program Files (x86)\IAR Systems\Embedded Workbench
//        8.1\arm\CMSIS\DSP\Include\")
//    Locale       =  C
//    List file    =  
//        C:\Users\PLT\Desktop\mksRobinLite_nano\EWARM\mksRobinLite\List\ultralcd.s
//
///////////////////////////////////////////////////////////////////////////////

        RTMODEL "__CPP_Exceptions", "Disabled"
        RTMODEL "__CPP_Language", "C++14"
        RTMODEL "__SystemLibrary", "DLib"
        RTMODEL "__dlib_file_descriptor", "1"
        RTMODEL "__dlib_full_locale_support", "1"
        RTMODEL "__dlib_version", "6"
        RTMODEL "__iar_require _Printf", "flags,int_specials,widths"
        AAPCS BASE,INTERWORK
        PRESERVE8
        REQUIRE8

        #define SHT_PROGBITS 0x1
        #define SHT_INIT_ARRAY 0xe

        EXTERN HAL_Delay
        EXTERN HAL_GPIO_ReadPin
        EXTERN HAL_GPIO_WritePin
        EXTERN HAL_GetTick
        EXTERN MSG_AUTOTEMP
        EXTERN MSG_AUTO_HOME
        EXTERN MSG_BED
        EXTERN MSG_BED_Z
        EXTERN MSG_CARD_MENU
        EXTERN MSG_CLOUD_DISABLED
        EXTERN MSG_CLOUD_INFO
        EXTERN MSG_CLOUD_NOT_CONNECTED
        EXTERN MSG_CONNECTED
        EXTERN MSG_CONTROL
        EXTERN MSG_DISABLE_STEPPERS
        EXTERN MSG_DISCONNECTED
        EXTERN MSG_FACTOR
        EXTERN MSG_FAN_SPEED
        EXTERN MSG_FILAMENT
        EXTERN MSG_FILAMENTCHANGE
        EXTERN MSG_FILAMENT_CHANGE_EXTRUDE_1
        EXTERN MSG_FILAMENT_CHANGE_EXTRUDE_2
        EXTERN MSG_FILAMENT_CHANGE_HEADER
        EXTERN MSG_FILAMENT_CHANGE_HEATING_1
        EXTERN MSG_FILAMENT_CHANGE_HEATING_2
        EXTERN MSG_FILAMENT_CHANGE_HEAT_1
        EXTERN MSG_FILAMENT_CHANGE_HEAT_2
        EXTERN MSG_FILAMENT_CHANGE_INIT_1
        EXTERN MSG_FILAMENT_CHANGE_INIT_2
        EXTERN MSG_FILAMENT_CHANGE_INIT_3
        EXTERN MSG_FILAMENT_CHANGE_INSERT_1
        EXTERN MSG_FILAMENT_CHANGE_INSERT_2
        EXTERN MSG_FILAMENT_CHANGE_INSERT_3
        EXTERN MSG_FILAMENT_CHANGE_LOAD_1
        EXTERN MSG_FILAMENT_CHANGE_LOAD_2
        EXTERN MSG_FILAMENT_CHANGE_NOZZLE
        EXTERN MSG_FILAMENT_CHANGE_OPTION_EXTRUDE
        EXTERN MSG_FILAMENT_CHANGE_OPTION_HEADER
        EXTERN MSG_FILAMENT_CHANGE_OPTION_RESUME
        EXTERN MSG_FILAMENT_CHANGE_RESUME_1
        EXTERN MSG_FILAMENT_CHANGE_RESUME_2
        EXTERN MSG_FILAMENT_CHANGE_UNLOAD_1
        EXTERN MSG_FILAMENT_CHANGE_UNLOAD_2
        EXTERN MSG_FILAMENT_MOVE_10MM_STOP
        EXTERN MSG_FLOW
        EXTERN MSG_HALTED
        EXTERN MSG_HEATING
        EXTERN MSG_HEATING_FAILED_LCD
        EXTERN MSG_HEATING_WAIT
        EXTERN MSG_INFO_BOARD_MENU
        EXTERN MSG_INFO_MENU
        EXTERN MSG_INFO_PRINTER_MENU
        EXTERN MSG_INFO_THERMISTOR_MENU
        EXTERN MSG_IN_FILAMENT
        EXTERN MSG_IN_FILAMENTING
        EXTERN MSG_IN_OUT_FILAMENT
        EXTERN MSG_IN_OUT_TEMP
        EXTERN MSG_LEVEL_BED
        EXTERN MSG_LEVEL_BED_CANCEL
        EXTERN MSG_LEVEL_BED_DONE
        EXTERN MSG_LEVEL_BED_HOMING
        EXTERN MSG_LEVEL_BED_NEXT_POINT
        EXTERN MSG_LEVEL_BED_WAITING
        EXTERN MSG_LOAD_EEPROM
        EXTERN MSG_MAIN
        EXTERN MSG_MAX
        EXTERN MSG_MIN
        EXTERN MSG_MOTION
        EXTERN MSG_MOVE_01MM
        EXTERN MSG_MOVE_10MM
        EXTERN MSG_MOVE_1MM
        EXTERN MSG_MOVE_AXIS
        EXTERN MSG_MOVE_E
        EXTERN MSG_MOVE_X
        EXTERN MSG_MOVE_Y
        EXTERN MSG_MOVE_Z
        EXTERN MSG_NOZZLE
        EXTERN MSG_NO_CARD
        EXTERN MSG_OFF
        EXTERN MSG_ON
        EXTERN MSG_OUT_FILAMENT
        EXTERN MSG_OUT_FILAMENTING
        EXTERN MSG_PAUSE_PRINT
        EXTERN MSG_PLEASE_RESET
        EXTERN MSG_PREHEAT_1
        EXTERN MSG_PREHEAT_1_BEDONLY
        EXTERN MSG_PREHEAT_1_END
        EXTERN MSG_PREHEAT_1_SETTINGS
        EXTERN MSG_PREHEAT_2
        EXTERN MSG_PREHEAT_2_BEDONLY
        EXTERN MSG_PREHEAT_2_END
        EXTERN MSG_PREHEAT_2_SETTINGS
        EXTERN MSG_PREPARE
        EXTERN MSG_PRINT_ABORTED
        EXTERN MSG_RESTORE_FAILSAFE
        EXTERN MSG_RESUME_PRINT
        EXTERN MSG_SD_INSERTED
        EXTERN MSG_SD_REMOVED
        EXTERN MSG_SPEED
        EXTERN MSG_STATE_AP
        EXTERN MSG_STATE_STA
        EXTERN MSG_STOP_PRINT
        EXTERN MSG_STORE_EEPROM
        EXTERN MSG_TEMPERATURE
        EXTERN MSG_WATCH
        EXTERN WELCOME_MSG
        EXTERN _Z10ftostr52spRKf
        EXTERN _Z10ftostr62rjRKf
        EXTERN _Z10safe_delaym
        EXTERN _Z11itostr4signRKi
        EXTERN _Z12ftostr41signRKf
        EXTERN _Z12ftostr43signRKfc
        EXTERN _Z12ftostr51signRKf
        EXTERN _Z12ftostr52signRKf
        EXTERN _Z17mesh_probing_donev
        EXTERN _Z17quickstop_stepperv
        EXTERN _Z18inverse_kinematicsPKf
        EXTERN _Z19clear_command_queuev
        EXTERN _Z22refresh_zprobe_zoffsetb
        EXTERN _Z27enqueue_and_echo_commands_PPKc
        EXTERN _Z31inverse_kinematics_MORGAN_SCARAPKf
        EXTERN _Z32calculate_volumetric_multipliersv
        EXTERN _Z4idleb
        EXTERN _Z7itostr3RKi
        EXTERN _Z8ftostr32RKf
        EXTERN _Z9ftostr5rjRKf
        EXTERN _ZN10CardReader11getfilenameEtPKc
        EXTERN _ZN10CardReader11stopSDPrintEv
        EXTERN _ZN10CardReader14getnrfilenamesEv
        EXTERN _ZN10CardReader14startFileprintEv
        EXTERN _ZN10CardReader16openAndPrintFileEPKc
        EXTERN _ZN10CardReader5chdirEPKc
        EXTERN _ZN10CardReader5updirEv
        EXTERN _ZN10CardReader6initsdEv
        EXTERN _ZN10CardReader7releaseEv
        EXTERN _ZN10SdBaseFile11getFilenameEPc
        EXTERN _ZN11Temperature13manage_heaterEv
        EXTERN _ZN11Temperature16extrude_min_tempE
        EXTERN _ZN11Temperature18allow_cold_extrudeE
        EXTERN _ZN11Temperature18start_watching_bedEv
        EXTERN _ZN11Temperature18target_temperatureE
        EXTERN _ZN11Temperature19current_temperatureE
        EXTERN _ZN11Temperature19disable_all_heatersEv
        EXTERN _ZN11Temperature21start_watching_heaterEh
        EXTERN _ZN11Temperature22target_temperature_bedE
        EXTERN _ZN11Temperature23current_temperature_bedE
        EXTERN _ZN11Temperature2KdE
        EXTERN _ZN11Temperature2KiE
        EXTERN _ZN11Temperature2KpE
        EXTERN _ZN11Temperature9updatePIDEv
        EXTERN _ZN14MarlinSettings4loadEv
        EXTERN _ZN14MarlinSettings4saveEv
        EXTERN _ZN14MarlinSettings5resetEv
        EXTERN _ZN17mesh_bed_leveling13index_to_xposE
        EXTERN _ZN17mesh_bed_leveling13index_to_yposE
        EXTERN _ZN17mesh_bed_leveling6statusE
        EXTERN _ZN17mesh_bed_leveling8z_offsetE
        EXTERN _ZN17mesh_bed_leveling8z_valuesE
        EXTERN _ZN20unified_bed_leveling12encoder_diffE
        EXTERN _ZN20unified_bed_leveling24has_control_of_lcd_panelE
        EXTERN _ZN5Print5printEc
        EXTERN _ZN5Print5writeEPKhj
        EXTERN _ZN6U8GLIB16u8gInit_LCD12864Ev
        EXTERN _ZN6U8GLIB17u8gInit_MINI12864Ev
        EXTERN _ZN6U8GLIB17u8gInit_OLED12864Ev
        EXTERN _ZN6U8GLIB7initSPIEP10_u8g_dev_thhhhh
        EXTERN _ZN7Planner12_buffer_lineERKfS1_S1_S1_fh
        EXTERN _ZN7Planner12accelerationE
        EXTERN _ZN7Planner12autotemp_maxE
        EXTERN _ZN7Planner12autotemp_minE
        EXTERN _ZN7Planner14apply_levelingERfS0_S0_
        EXTERN _ZN7Planner15autotemp_factorE
        EXTERN _ZN7Planner16autotemp_enabledE
        EXTERN _ZN7Planner17axis_steps_per_mmE
        EXTERN _ZN7Planner17block_buffer_headE
        EXTERN _ZN7Planner17block_buffer_tailE
        EXTERN _ZN7Planner17max_feedrate_mm_sE
        EXTERN _ZN7Planner17min_feedrate_mm_sE
        EXTERN _ZN7Planner19refresh_positioningEv
        EXTERN _ZN7Planner19travel_accelerationE
        EXTERN _ZN7Planner20retract_accelerationE
        EXTERN _ZN7Planner23block_buffer_runtime_usE
        EXTERN _ZN7Planner24min_travel_feedrate_mm_sE
        EXTERN _ZN7Planner24reset_acceleration_ratesEv
        EXTERN _ZN7Planner26max_acceleration_mm_per_s2E
        EXTERN _ZN7Planner8max_jerkE
        EXTERN _ZN7Stepper11synchronizeEv
        EXTERN _ZN9Stopwatch4stopEv
        EXTERN _ZN9Stopwatch5pauseEv
        EXTERN _ZN9Stopwatch5startEv
        EXTERN _ZN9Stopwatch8durationEv
        EXTERN _ZTI5Print
        EXTERN _ZTVN10__cxxabiv117__class_type_infoE
        EXTERN _ZTVN10__cxxabiv120__si_class_type_infoE
        EXTERN __aeabi_cfcmple
        EXTERN __aeabi_cfrcmple
        EXTERN __aeabi_d2f
        EXTERN __aeabi_d2iz
        EXTERN __aeabi_d2uiz
        EXTERN __aeabi_dadd
        EXTERN __aeabi_ddiv
        EXTERN __aeabi_dmul
        EXTERN __aeabi_dsub
        EXTERN __aeabi_f2d
        EXTERN __aeabi_f2iz
        EXTERN __aeabi_fadd
        EXTERN __aeabi_fdiv
        EXTERN __aeabi_fmul
        EXTERN __aeabi_fsub
        EXTERN __aeabi_i2d
        EXTERN __aeabi_i2f
        EXTERN __aeabi_memclr4
        EXTERN __aeabi_memcpy4
        EXTERN __aeabi_memset4
        EXTERN __aeabi_ui2d
        EXTERN __aeabi_ui2f
        EXTERN abs
        EXTERN active_extruder
        EXTERN axis_homed
        EXTERN axis_known_position
        EXTERN buzzer
        EXTERN card
        EXTERN cloud_para
        EXTERN cloud_unbind
        EXTERN commands_in_queue
        EXTERN current_position
        EXTERN delta
        EXTERN delta_clip_start_height
        EXTERN epr_write_data
        EXTERN fanSpeeds
        EXTERN feedrate_percentage
        EXTERN filament_change_menu_response
        EXTERN filament_size
        EXTERN flow_percentage
        EXTERN gArrayGpioPin
        EXTERN gArrayGpioPort
        EXTERN ipPara
        EXTERN marlin_debug_flags
        EXTERN mksCfg
        EXTERN mksEeprom_state
        EXTERN mksEndStopsBuf
        EXTERN mksEndStopsCnt
        EXTERN mksReprint
        EXTERN mks_resumePrint
        EXTERN previous_cmd_ms
        EXTERN print_job_timer
        EXTERN soft_endstop_max
        EXTERN soft_endstop_min
        EXTERN soft_endstops_enabled
        EXTERN sprintf
        EXTERN sqrtf
        EXTERN strcat
        EXTERN strcpy
        EXTERN strncpy
        EXTERN u8g_Begin
        EXTERN u8g_DrawBitmapP
        EXTERN u8g_DrawBox
        EXTERN u8g_DrawFrame
        EXTERN u8g_DrawGlyph
        EXTERN u8g_DrawHLine
        EXTERN u8g_DrawPixel
        EXTERN u8g_DrawStr
        EXTERN u8g_FirstPage
        EXTERN u8g_NextPage
        EXTERN u8g_SetColorIndex
        EXTERN u8g_SetContrast
        EXTERN u8g_SetFont
        EXTERN u8g_SetRot180
        EXTERN u8g_dev_ssd1306_128x64_sw_spi
        EXTERN volumetric_enabled
        EXTERN wait_for_heatup
        EXTERN wait_for_user
        EXTERN wifiPara
        EXTERN wifi_firm_ver
        EXTERN wifi_link_state
        EXTERN workspace_offset
        EXTERN zprobe_zoffset

        PUBLIC _Z10lcd_move_ev
        PUBLIC _Z10lcd_move_xv
        PUBLIC _Z10lcd_move_yv
        PUBLIC _Z10lcd_move_zv
        PUBLIC _Z10lcd_strlenPKc
        PUBLIC _Z10lcd_updatev
        PUBLIC _Z11_lcd_move_ev
        PUBLIC _Z11ftostr4signRKf
        PUBLIC _Z11kill_screenPKc
        PUBLIC _Z11test_screenv
        PUBLIC _Z12_lcd_preheatisss
        PUBLIC _Z12lcd_cooldownv
        PUBLIC _Z12lcd_detectedv
        PUBLIC _Z12lcd_printPGMPKc
        PUBLIC _Z12lcd_sd_updirv
        PUBLIC _Z12lcd_strlen_PPKc
        PUBLIC _Z13_lcd_move_xyzPKc8AxisEnum
        PUBLIC _Z13chirp_at_userv
        PUBLIC _Z13lcd_hasstatusv
        PUBLIC _Z13lcd_info_menuv
        PUBLIC _Z13lcd_level_bedv
        PUBLIC _Z13lcd_main_menuv
        PUBLIC _Z13lcd_mesh_editv
        PUBLIC _Z13lcd_move_menuv
        PUBLIC _Z13lcd_setstatusPKcb
        PUBLIC _Z13lcd_tune_menuv
        PUBLIC _Z13lcd_wifi_infov
        PUBLIC _Z14_lcd_mesh_editv
        PUBLIC _Z14charset_mapperc
        PUBLIC _Z14in_out_heatingv
        PUBLIC _Z14menu_edit_int3v
        PUBLIC _Z14set_utf_strlenPch
        PUBLIC _Z15_menu_edit_int3v
        PUBLIC _Z15lcd_goto_screenPFvvEj
        PUBLIC _Z15lcd_kill_screenv
        PUBLIC _Z15lcd_sdcard_menuv
        PUBLIC _Z15lcd_sdcard_stopv
        PUBLIC _Z15lcd_synchronizev
        PUBLIC _Z15line_to_current8AxisEnum
        PUBLIC _Z15menu_edit_long5v
        PUBLIC _Z15mks_in_filamentv
        PUBLIC _Z15ubl_lcd_clickedv
        PUBLIC _Z16AUTO_IN_FILAMENTv
        PUBLIC _Z16_MOVE_XY_ALLOWEDv
        PUBLIC _Z16_draw_axis_label8AxisEnumPKcb
        PUBLIC _Z16_menu_edit_long5v
        PUBLIC _Z16in_filament_movev
        PUBLIC _Z16lcd_control_menuv
        PUBLIC _Z16lcd_finishstatusb
        PUBLIC _Z16lcd_prepare_menuv
        PUBLIC _Z16lcd_sdcard_pausev
        PUBLIC _Z16lcd_setstatuspgmPKch
        PUBLIC _Z16menu_edit_float3v
        PUBLIC _Z16menu_edit_float5v
        PUBLIC _Z16mks_out_filamentv
        PUBLIC _Z17AUTO_OUT_FILAMENTv
        PUBLIC _Z17_MOVE_XYZ_ALLOWEDv
        PUBLIC _Z17_menu_action_backv
        PUBLIC _Z17_menu_edit_float3v
        PUBLIC _Z17_menu_edit_float5v
        PUBLIC _Z17lcd_Init_LCD12864v
        PUBLIC _Z17lcd_move_menu_1mmv
        PUBLIC _Z17lcd_preheat_m1_e0v
        PUBLIC _Z17lcd_preheat_m2_e0v
        PUBLIC _Z17lcd_sdcard_resumev
        PUBLIC _Z17lcd_status_screenv
        PUBLIC _Z17lcd_z_offset_editv
        PUBLIC _Z17menu_action_gcodePKc
        PUBLIC _Z17menu_edit_float32v
        PUBLIC _Z17menu_edit_float43v
        PUBLIC _Z17menu_edit_float51v
        PUBLIC _Z17menu_edit_float52v
        PUBLIC _Z17menu_edit_float62v
        PUBLIC _Z17out_filament_movev
        PUBLIC _Z18_lcd_mesh_edit_NOPv
        PUBLIC _Z18_lcd_z_offset_editv
        PUBLIC _Z18_menu_edit_float32v
        PUBLIC _Z18_menu_edit_float43v
        PUBLIC _Z18_menu_edit_float51v
        PUBLIC _Z18_menu_edit_float52v
        PUBLIC _Z18_menu_edit_float62v
        PUBLIC _Z18lcd_Init_MINI12864v
        PUBLIC _Z18lcd_Init_OLED12864v
        PUBLIC _Z18lcd_buttons_updatev
        PUBLIC _Z18lcd_move_menu_01mmv
        PUBLIC _Z18lcd_move_menu_10mmv
        PUBLIC _Z18lcd_quick_feedbackv
        PUBLIC _Z18manage_manual_movev
        PUBLIC _Z18menu_action_sdfilePKcPc
        PUBLIC _Z19_draw_centered_tempihh
        PUBLIC _Z19_draw_heater_statusha
        PUBLIC _Z19_lcd_level_bed_donev
        PUBLIC _Z19copy_and_scalePID_di
        PUBLIC _Z19copy_and_scalePID_ii
        PUBLIC _Z19lcd_info_board_menuv
        PUBLIC _Z19lcd_mesh_edit_setupf
        PUBLIC _Z19lcd_preheat_m1_menuv
        PUBLIC _Z19lcd_preheat_m2_menuv
        PUBLIC _Z19lcd_print_and_countc
        PUBLIC _Z19lcd_status_printf_PhPKcz
        PUBLIC _Z19menu_action_submenuPFvvE
        PUBLIC _Z19refresh_cmd_timeoutv
        PUBLIC _Z20_lcd_level_bed_get_zv
        PUBLIC _Z20lcd_return_to_statusv
        PUBLIC _Z20lcd_set_home_offsetsv
        PUBLIC _Z20menu_action_functionPFvvE
        PUBLIC _Z21_lcd_level_bed_homingv
        PUBLIC _Z21_lcd_level_bed_movingv
        PUBLIC _Z21_manual_probe_goto_xyff
        PUBLIC _Z21lcd_info_printer_menuv
        PUBLIC _Z21lcd_move_get_e_amountv
        PUBLIC _Z21lcd_move_get_x_amountv
        PUBLIC _Z21lcd_move_get_y_amountv
        PUBLIC _Z21lcd_move_get_z_amountv
        PUBLIC _Z21lcd_reset_alert_levelv
        PUBLIC _Z21lcd_setalertstatuspgmPKc
        PUBLIC _Z22copy_and_scalePID_d_E0v
        PUBLIC _Z22copy_and_scalePID_i_E0v
        PUBLIC _Z22lcd_cloud_service_menuv
        PUBLIC _Z22lcd_goto_previous_menuv
        PUBLIC _Z22lcd_preheat_m1_bedonlyv
        PUBLIC _Z22lcd_preheat_m1_e0_onlyv
        PUBLIC _Z22lcd_preheat_m2_bedonlyv
        PUBLIC _Z22lcd_preheat_m2_e0_onlyv
        PUBLIC _Z22manual_move_to_current8AxisEnum
        PUBLIC _Z22watch_temp_callback_E0v
        PUBLIC _Z23_lcd_level_bed_continuev
        PUBLIC _Z23_lcd_move_distance_menu8AxisEnumPFvvE
        PUBLIC _Z23lcd_completion_feedbackb
        PUBLIC _Z23lcd_control_motion_menuv
        PUBLIC _Z23lcd_z_offset_edit_setupf
        PUBLIC _Z23menu_action_sddirectoryPKcPc
        PUBLIC _Z23menu_edit_callback_int3v
        PUBLIC _Z23watch_temp_callback_bedv
        PUBLIC _Z24lcd_implementation_clearv
        PUBLIC _Z24lcd_save_previous_screenv
        PUBLIC _Z24menu_edit_callback_long5v
        PUBLIC _Z25_reset_acceleration_ratesv
        PUBLIC _Z25lcd_control_filament_menuv
        PUBLIC _Z25lcd_info_thermistors_menuv
        PUBLIC _Z25menu_edit_callback_float3v
        PUBLIC _Z25menu_edit_callback_float5v
        PUBLIC _Z25mks_lcd_move_get_e_amountv
        PUBLIC _Z26_lcd_level_bed_homing_donev
        PUBLIC _Z26_lcd_level_goto_next_pointv
        PUBLIC _Z26lcd_filament_change_headerv
        PUBLIC _Z26lcd_lower_z_to_clip_heightv
        PUBLIC _Z26menu_edit_callback_float32v
        PUBLIC _Z26menu_edit_callback_float43v
        PUBLIC _Z26menu_edit_callback_float51v
        PUBLIC _Z26menu_edit_callback_float52v
        PUBLIC _Z26menu_edit_callback_float62v
        PUBLIC _Z27lcd_enqueue_filament_changev
        PUBLIC _Z27lcd_implementation_draweditPKcS0_
        PUBLIC _Z28_planner_refresh_positioningv
        PUBLIC _Z28lcd_control_temperature_menuv
        PUBLIC _Z29menu_action_setting_edit_boolPKcPb
        PUBLIC _Z29menu_action_setting_edit_int3PKcPiii
        PUBLIC _Z30_menu_action_setting_edit_int3PKcPiii
        PUBLIC _Z30menu_action_setting_edit_long5PKcPmmm
        PUBLIC _Z30mks_lcd_move_get_e_amount_stopv
        PUBLIC _Z31_menu_action_setting_edit_long5PKcPmmm
        PUBLIC _Z31lcd_filament_change_heat_nozzlev
        PUBLIC _Z31lcd_filament_change_option_menuv
        PUBLIC _Z31menu_action_setting_edit_float3PKcPfff
        PUBLIC _Z31menu_action_setting_edit_float5PKcPfff
        PUBLIC _Z32_menu_action_setting_edit_float3PKcPfff
        PUBLIC _Z32_menu_action_setting_edit_float5PKcPfff
        PUBLIC _Z32lcd_filament_change_extrude_morev
        PUBLIC _Z32lcd_filament_change_init_messagev
        PUBLIC _Z32lcd_filament_change_load_messagev
        PUBLIC _Z32lcd_filament_change_resume_printv
        PUBLIC _Z32lcd_filament_change_show_message21FilamentChangeMessage
        PUBLIC _Z32lcd_filament_change_toocold_menuv
        PUBLIC _Z32menu_action_setting_edit_float32PKcPfff
        PUBLIC _Z32menu_action_setting_edit_float43PKcPfff
        PUBLIC _Z32menu_action_setting_edit_float51PKcPfff
        PUBLIC _Z32menu_action_setting_edit_float52PKcPfff
        PUBLIC _Z32menu_action_setting_edit_float62PKcPfff
        PUBLIC _Z33_menu_action_setting_edit_float32PKcPfff
        PUBLIC _Z33_menu_action_setting_edit_float43PKcPfff
        PUBLIC _Z33_menu_action_setting_edit_float51PKcPfff
        PUBLIC _Z33_menu_action_setting_edit_float52PKcPfff
        PUBLIC _Z33_menu_action_setting_edit_float62PKcPfff
        PUBLIC _Z34lcd_filament_change_insert_messagev
        PUBLIC _Z34lcd_filament_change_resume_messagev
        PUBLIC _Z34lcd_filament_change_unload_messagev
        PUBLIC _Z35lcd_filament_change_extrude_messagev
        PUBLIC _Z38menu_action_setting_edit_callback_boolPKcPbPFvvE
        PUBLIC _Z38menu_action_setting_edit_callback_int3PKcPiiiPFvvE
        PUBLIC _Z39menu_action_setting_edit_callback_long5PKcPmmmPFvvE
        PUBLIC _Z40menu_action_setting_edit_callback_float3PKcPfffPFvvE
        PUBLIC _Z40menu_action_setting_edit_callback_float5PKcPfffPFvvE
        PUBLIC _Z41menu_action_setting_edit_callback_float32PKcPfffPFvvE
        PUBLIC _Z41menu_action_setting_edit_callback_float43PKcPfffPFvvE
        PUBLIC _Z41menu_action_setting_edit_callback_float51PKcPfffPFvvE
        PUBLIC _Z41menu_action_setting_edit_callback_float52PKcPfffPFvvE
        PUBLIC _Z41menu_action_setting_edit_callback_float62PKcPfffPFvvE
        PUBLIC _Z44lcd_filament_change_wait_for_nozzles_to_heatv
        PUBLIC _Z45lcd_implementation_drawmenu_setting_edit_int3bhPKcS0_Piz
        PUBLIC _Z46_lcd_control_temperature_preheat_settings_menuh
        PUBLIC _Z47lcd_implementation_drawmenu_setting_edit_float3bhPKcS0_Pfz
        PUBLIC _Z47lcd_implementation_drawmenu_setting_edit_float5bhPKcS0_Pfz
        PUBLIC _Z48lcd_implementation_drawmenu_setting_edit_float32bhPKcS0_Pfz
        PUBLIC _Z48lcd_implementation_drawmenu_setting_edit_float43bhPKcS0_Pfz
        PUBLIC _Z48lcd_implementation_drawmenu_setting_edit_float52bhPKcS0_Pfz
        PUBLIC _Z54lcd_implementation_drawmenu_setting_edit_callback_int3bhPKcS0_Piz
        PUBLIC _Z55lcd_control_temperature_preheat_material1_settings_menuv
        PUBLIC _Z55lcd_control_temperature_preheat_material2_settings_menuv
        PUBLIC _Z55lcd_implementation_drawmenu_setting_edit_callback_long5bhPKcS0_Pmz
        PUBLIC _Z57lcd_implementation_drawmenu_setting_edit_callback_float32bhPKcS0_Pfz
        PUBLIC _Z57lcd_implementation_drawmenu_setting_edit_callback_float43bhPKcS0_Pfz
        PUBLIC _Z57lcd_implementation_drawmenu_setting_edit_callback_float52bhPKcS0_Pfz
        PUBLIC _Z57lcd_implementation_drawmenu_setting_edit_callback_float62bhPKcS0_Pfz
        PUBLIC _Z7ftostr3RKf
        PUBLIC _Z8lcd_buzzlt
        PUBLIC _Z8lcd_initv
        PUBLIC _Z9lcd_blinkv
        PUBLIC _Z9lcd_printPKc
        PUBLIC _Z9lcd_printc
        PUBLIC _ZN10CardReader10isFileOpenEv
        PUBLIC _ZN10CardReader11percentDoneEv
        PUBLIC _ZN10CardReader12pauseSDPrintEv
        PUBLIC _ZN10CardReader14getWorkDirNameEv
        PUBLIC _ZN10duration_tC1ERKj
        PUBLIC _ZN11Temperature12degTargetBedEv
        PUBLIC _ZN11Temperature12isHeatingBedEv
        PUBLIC _ZN11Temperature12setTargetBedEf
        PUBLIC _ZN11Temperature15degTargetHotendEh
        PUBLIC _ZN11Temperature15isHeatingHotendEh
        PUBLIC _ZN11Temperature15setTargetHotendEfh
        PUBLIC _ZN11Temperature16tooColdToExtrudeEh
        PUBLIC _ZN11Temperature6degBedEv
        PUBLIC _ZN11Temperature9degHotendEh
        PUBLIC _ZN13CircularQueueI6tone_tLh4EE6isFullEv
        PUBLIC _ZN13CircularQueueI6tone_tLh4EE7dequeueEv
        PUBLIC _ZN13CircularQueueI6tone_tLh4EE7enqueueERKS0_
        PUBLIC _ZN13CircularQueueI6tone_tLh4EE7isEmptyEv
        PUBLIC _ZN17mesh_bed_leveling12set_has_meshEb
        PUBLIC _ZN17mesh_bed_leveling12set_zigzag_zEaRKf
        PUBLIC _ZN17mesh_bed_leveling5set_zEaaRKf
        PUBLIC _ZN17mesh_bed_leveling6zigzagEaRaS0_
        PUBLIC _ZN21U8GLIB_SSD1306_128X64C1Ehhhhh
        PUBLIC _ZN5PrintC1Ev
        PUBLIC _ZN5PrintC2Ev
        PUBLIC _ZN6Buzzer2onEv
        PUBLIC _ZN6Buzzer3offEv
        PUBLIC _ZN6Buzzer4tickEv
        PUBLIC _ZN6Buzzer4toneERKtS1_
        PUBLIC _ZN6Buzzer5resetEv
        PUBLIC _ZN6U8GLIB11drawBitmapPEhhhhPKh
        PUBLIC _ZN6U8GLIB11setContrastEh
        PUBLIC _ZN6U8GLIB11setPrintPosEhh
        PUBLIC _ZN6U8GLIB13setColorIndexEh
        PUBLIC _ZN6U8GLIB5writeEh
        PUBLIC _ZN6U8GLIB6cbeginEv
        PUBLIC _ZN6U8GLIB6getU8gEv
        PUBLIC _ZN6U8GLIB7drawBoxEhhhh
        PUBLIC _ZN6U8GLIB7drawStrEhhPKc
        PUBLIC _ZN6U8GLIB7setFontEPKh
        PUBLIC _ZN6U8GLIB8getWidthEv
        PUBLIC _ZN6U8GLIB8nextPageEv
        PUBLIC _ZN6U8GLIB9drawFrameEhhhh
        PUBLIC _ZN6U8GLIB9drawHLineEhhh
        PUBLIC _ZN6U8GLIB9drawPixelEhh
        PUBLIC _ZN6U8GLIB9firstPageEv
        PUBLIC _ZN6U8GLIB9getHeightEv
        PUBLIC _ZN6U8GLIB9setRot180Ev
        PUBLIC _ZN6U8GLIBC1EP10_u8g_dev_thhhhh
        PUBLIC _ZN6U8GLIBC2EP10_u8g_dev_thhhhh
        PUBLIC _ZN7Planner12movesplannedEv
        PUBLIC _ZN7Planner14apply_levelingEPf
        PUBLIC _ZN7Planner20block_buffer_runtimeEv
        PUBLIC _ZN7Planner21buffer_line_kinematicEPKfRS0_h
        PUBLIC _ZN7Planner7is_fullEv
        PUBLIC _ZNK10SdBaseFile6isOpenEv
        PUBLIC _ZNK10duration_t3dayEv
        PUBLIC _ZNK10duration_t4hourEv
        PUBLIC _ZNK10duration_t6minuteEv
        PUBLIC _ZNK10duration_t6secondEv
        PUBLIC _ZNK10duration_t9toDigitalEPcb
        PUBLIC _ZTI21U8GLIB_SSD1306_128X64
        PUBLIC _ZTI6Buzzer
        PUBLIC _ZTI6U8GLIB
        PUBLIC _ZTS21U8GLIB_SSD1306_128X64
        PUBLIC _ZTS6Buzzer
        PUBLIC _ZTS6U8GLIB
        PUBLIC _ZTV21U8GLIB_SSD1306_128X64
        PUBLIC _ZTV6U8GLIB
        PUBLIC _ZZ15lcd_synchronizevE10no_reentry
        PUBLIC _ZZ15lcd_synchronizevEs
        PUBLIC _ZZ19_draw_centered_tempihhEs
        PUBLIC _ZZNK10duration_t9toDigitalEPcbEs
        PUBLIC _ZZNK10duration_t9toDigitalEPcbEs_0
        PUBLIC _ZZNK10duration_t9toDigitalEPcbEs_1
        PUBLIC _manual_move_func_ptr
        PUBLIC buttons
        PUBLIC callbackFunc
        PUBLIC currentScreen
        PUBLIC defer_return_to_status
        PUBLIC drawing_screen
        PUBLIC editLabel
        PUBLIC editValue
        PUBLIC encoderDiff
        PUBLIC encoderPosition
        PUBLIC encoderRateMultiplierEnabled
        PUBLIC encoderTopLine
        PUBLIC heater_maxtemp
        PUBLIC in_filament_flag
        PUBLIC in_filament_move_flag
        PUBLIC lastEncoderMovementMillis
        PUBLIC lcdDrawUpdate
        PUBLIC lcd_clicked
        PUBLIC lcd_contrast
        PUBLIC lcd_preheat_bed_temp
        PUBLIC lcd_preheat_fan_speed
        PUBLIC lcd_preheat_hotend_temp
        PUBLIC lcd_sd_status
        PUBLIC lcd_status_message
        PUBLIC lcd_status_message_level
        PUBLIC manual_feedrate_mm_m
        PUBLIC manual_move_axis
        PUBLIC manual_move_start_time
        PUBLIC maxEditValue
        PUBLIC max_display_update_time
        PUBLIC mesh_edit_accumulator
        PUBLIC mesh_edit_value
        PUBLIC minEditValue
        PUBLIC mks_lcd_move_get_e_amount_flag
        PUBLIC mks_lcd_move_get_e_amount_move_flag
        PUBLIC mks_lcd_move_get_e_amount_move_flag1
        PUBLIC mks_lcd_move_get_e_amount_move_flag2
        PUBLIC move_menu_scale
        PUBLIC next_button_update_ms
        PUBLIC next_lcd_update_ms
        PUBLIC out_filament_flag
        PUBLIC out_filament_move_flag
        PUBLIC page
        PUBLIC raw_Kd
        PUBLIC raw_Ki
        PUBLIC row_y1
        PUBLIC row_y2
        PUBLIC screen_changed
        PUBLIC screen_history
        PUBLIC screen_history_depth
        PUBLIC status_screen0_bmp
        PUBLIC status_screen1_bmp
        PUBLIC total_probe_points
        PUBLIC u8g
        PUBLIC wait_for_unclick
        
          CFI Names cfiNames0
          CFI StackFrame CFA R13 DATA
          CFI Resource R0:32, R1:32, R2:32, R3:32, R4:32, R5:32, R6:32, R7:32
          CFI Resource R8:32, R9:32, R10:32, R11:32, R12:32, R13:32, R14:32
          CFI EndNames cfiNames0
        
          CFI Common cfiCommon0 Using cfiNames0
          CFI CodeAlign 2
          CFI DataAlign 4
          CFI ReturnAddress R14 CODE
          CFI CFA R13+0
          CFI R0 Undefined
          CFI R1 Undefined
          CFI R2 Undefined
          CFI R3 Undefined
          CFI R4 SameValue
          CFI R5 SameValue
          CFI R6 SameValue
          CFI R7 SameValue
          CFI R8 SameValue
          CFI R9 SameValue
          CFI R10 SameValue
          CFI R11 SameValue
          CFI R12 Undefined
          CFI R14 SameValue
          CFI EndCommon cfiCommon0
        
// C:\Users\PLT\Desktop\mksRobinLite_nano\Middlewares\Third_Party\Marlin\ultralcd.cpp
//    1 /**
//    2  * Marlin 3D Printer Firmware
//    3  * Copyright (C) 2016 MarlinFirmware [https://github.com/MarlinFirmware/Marlin]
//    4  *
//    5  * Based on Sprinter and grbl.
//    6  * Copyright (C) 2011 Camiel Gubbels / Erik van der Zalm
//    7  *
//    8  * This program is free software: you can redistribute it and/or modify
//    9  * it under the terms of the GNU General Public License as published by
//   10  * the Free Software Foundation, either version 3 of the License, or
//   11  * (at your option) any later version.
//   12  *
//   13  * This program is distributed in the hope that it will be useful,
//   14  * but WITHOUT ANY WARRANTY; without even the implied warranty of
//   15  * MERCHANTABILITY or FITNESS FOR A PARTICULAR PURPOSE.  See the
//   16  * GNU General Public License for more details.
//   17  *
//   18  * You should have received a copy of the GNU General Public License
//   19  * along with this program.  If not, see <http://www.gnu.org/licenses/>.
//   20  *
//   21  */
//   22 
//   23 #include "ultralcd.h"
//   24 #include "mks_reprint.h"
//   25 #if ENABLED(ULTRA_LCD)
//   26 #include "Marlin.h"
//   27 #include "language.h"
//   28 #include "cardreader.h"
//   29 #include "temperature.h"
//   30 #include "stepper.h"
//   31 #include "configuration_store.h"
//   32 #include "utility.h"
//   33 
//   34 #define B01     1	/*--mks--*/
//   35 #define B10     2
//   36 
//   37 #if HAS_BUZZER && DISABLED(LCD_USE_I2C_BUZZER)
//   38   #include "buzzer.h"
//   39 #endif
//   40 
//   41 #if ENABLED(PRINTCOUNTER)
//   42   #include "printcounter.h"
//   43   #include "duration_t.h"
//   44 #endif
//   45 
//   46 #if ENABLED(BLTOUCH)
//   47   #include "endstops.h"
//   48 #endif
//   49 
//   50 int lcd_preheat_hotend_temp[2], lcd_preheat_bed_temp[2], lcd_preheat_fan_speed[2];
//   51 
//   52 #if ENABLED(FILAMENT_LCD_DISPLAY) && ENABLED(SDSUPPORT)
//   53   millis_t previous_lcd_status_ms = 0;
//   54 #endif
//   55 
//   56 #if ENABLED(BABYSTEPPING)
//   57   long babysteps_done = 0;
//   58   #if ENABLED(BABYSTEP_ZPROBE_OFFSET)
//   59     static void lcd_babystep_zoffset();
//   60   #else
//   61     static void lcd_babystep_z();
//   62   #endif
//   63 #endif
//   64 

        SECTION `.bss`:DATA:REORDER:NOROOT(2)
        DATA
//   65 uint8_t lcd_status_message_level;
lcd_status_message_level:
        DS8 1
        DS8 3
//   66 /*--mks cfg-- LCD_LANGUAGE*/
//   67 //char lcd_status_message[3 * (LCD_WIDTH) + 1] = WELCOME_MSG; // worst case is kana with up to 3*LCD_WIDTH+1
//   68 char lcd_status_message[3 * (LCD_WIDTH) + 1];
lcd_status_message:
        DS8 68
//   69 
//   70 #if ENABLED(DOGLCD)
//   71   #include "ultralcd_impl_DOGM.h"

        SECTION `.text`:CODE:NOROOT(1)
          CFI Block cfiBlock0 Using cfiCommon0
          CFI Function __sti__routine
        THUMB
// static __intrinsic __interwork __softfp void __sti__routine()
__sti__routine:
        PUSH     {R2-R4,LR}
          CFI R14 Frame(CFA, -4)
          CFI R4 Frame(CFA, -8)
          CFI CFA R13+16
        LDR.N    R4,??DataTable91
        MOVS     R0,#+255
        STR      R0,[SP, #+4]
        LDR.N    R0,??DataTable91_1  ;; 0x422101ac
        LDR      R0,[R0, #+0]
        UXTB     R0,R0
        STR      R0,[SP, #+0]
        MOVS     R3,#+31
        MOVS     R2,#+23
        MOVS     R1,#+22
        ADD      R0,R4,#+708
          CFI FunCall _ZN21U8GLIB_SSD1306_128X64C1Ehhhhh
        BL       _ZN21U8GLIB_SSD1306_128X64C1Ehhhhh
          CFI FunCall _ZN6U8GLIB6getU8gEv
        BL       _ZN6U8GLIB6getU8gEv
        LDR      R0,[R0, #+4]
        LDR      R0,[R0, #+4]
        STR      R0,[R4, #+60]
        LDR.N    R0,??DataTable91_2
        LDRB     R1,[R0, #+0]
        LDRB     R0,[R0, #+1]
        MULS     R1,R0,R1
        STRB     R1,[R4, #+24]
        POP      {R0,R1,R4,PC}    ;; return
          CFI EndBlock cfiBlock0

        SECTION `.text`:CODE:NOROOT(1)
          CFI Block cfiBlock1 Using cfiCommon0
          CFI Function _Z14charset_mapperc
        THUMB
// __interwork __softfp char charset_mapper(char)
_Z14charset_mapperc:
        PUSH     {R7,LR}
          CFI R14 Frame(CFA, -4)
          CFI CFA R13+8
        MOV      R1,R0
        LDR.N    R0,??DataTable91_3
          CFI FunCall _ZN5Print5printEc
        BL       _ZN5Print5printEc
        MOVS     R0,#+1
        POP      {R1,PC}          ;; return
          CFI EndBlock cfiBlock1

        SECTION `.bss`:DATA:REORDER:NOROOT(0)
        DATA
// static __absolute char currentfont
currentfont:
        DS8 1

        SECTION `.text`:CODE:NOROOT(2)
          CFI Block cfiBlock2 Using cfiCommon0
          CFI Function _ZN34_INTERNAL_12_ultralcd_cpp_6629db9211lcd_setFontEc
        THUMB
// static __interwork __softfp void lcd_setFont(char)
_ZN34_INTERNAL_12_ultralcd_cpp_6629db9211lcd_setFontEc:
        SUBS     R0,R0,#+1
        CMP      R0,#+3
        BLS.N    ??lcd_setFont_1
        BX       LR
??lcd_setFont_1:
        PUSH     {R7,LR}
          CFI R14 Frame(CFA, -4)
          CFI CFA R13+8
        TBB      [PC, R0]
        DATA
??lcd_setFont_0:
        DC8      0x2,0x14,0x1C,0xB
        THUMB
??lcd_setFont_2:
        ADR.W    R1,ISO10646_CN
        LDR.N    R0,??DataTable91_3
          CFI FunCall _ZN6U8GLIB7setFontEPKh
        BL       _ZN6U8GLIB7setFontEPKh
        MOVS     R0,#+1
        LDR.N    R1,??DataTable91_4
        STRB     R0,[R1, #+0]
        POP      {R0,PC}
??lcd_setFont_3:
        ADR.W    R1,ISO10646_CN
        LDR.N    R0,??DataTable91_3
          CFI FunCall _ZN6U8GLIB7setFontEPKh
        BL       _ZN6U8GLIB7setFontEPKh
        MOVS     R0,#+4
        LDR.N    R1,??DataTable91_4
        STRB     R0,[R1, #+0]
        POP      {R0,PC}
??lcd_setFont_4:
        LDR.N    R1,??DataTable91_5
        LDR.N    R0,??DataTable91_3
          CFI FunCall _ZN6U8GLIB7setFontEPKh
        BL       _ZN6U8GLIB7setFontEPKh
        MOVS     R0,#+2
        LDR.N    R1,??DataTable91_4
        STRB     R0,[R1, #+0]
        POP      {R0,PC}
??lcd_setFont_5:
        ADR.W    R1,ISO10646_CN
        LDR.N    R0,??DataTable91_3
          CFI FunCall _ZN6U8GLIB7setFontEPKh
        BL       _ZN6U8GLIB7setFontEPKh
        MOVS     R0,#+3
        LDR.N    R1,??DataTable91_4
        STRB     R0,[R1, #+0]
??lcd_setFont_6:
        POP      {R0,PC}          ;; return
          CFI EndBlock cfiBlock2

        SECTION `.text`:CODE:NOROOT(2)
        SECTION_TYPE SHT_PROGBITS, 0
        DATA
??DataTable91:
        DC32     row_y1

        SECTION `.text`:CODE:NOROOT(2)
        SECTION_TYPE SHT_PROGBITS, 0
        DATA
??DataTable91_1:
        DC32     0x422101ac

        SECTION `.text`:CODE:NOROOT(2)
        SECTION_TYPE SHT_PROGBITS, 0
        DATA
??DataTable91_2:
        DC32     mksCfg+0x60

        SECTION `.text`:CODE:NOROOT(2)
        SECTION_TYPE SHT_PROGBITS, 0
        DATA
??DataTable91_3:
        DC32     row_y1+0x2C4

        SECTION `.text`:CODE:NOROOT(2)
        SECTION_TYPE SHT_PROGBITS, 0
        DATA
??DataTable91_4:
        DC32     currentfont

        SECTION `.text`:CODE:NOROOT(2)
        SECTION_TYPE SHT_PROGBITS, 0
        DATA
??DataTable91_5:
        DC32     Marlin_symbols

        SECTION `.text`:CODE:NOROOT(2)
        SECTION_TYPE SHT_PROGBITS, 0
        DATA
// static __absolute uint8_t const ISO10646_CN[4765]
ISO10646_CN:
        DC8 0, 12, 11, 0, 254, 7, 1, 146, 3, 33, 32, 255, 255, 10, 255, 7, 255
        DC8 0, 0, 0, 6, 0, 0, 1, 7, 7, 6, 2, 0, 128, 128, 128, 128, 128, 0, 128
        DC8 3, 2, 2, 6, 1, 5, 160, 160, 5, 7, 7, 6, 0, 0, 80, 80, 248, 80, 248
        DC8 80, 80, 5, 7, 7, 6, 0, 0, 32, 120, 160, 112, 40, 240, 32, 5, 7, 7
        DC8 6, 0, 0, 192, 200, 16, 32, 64, 152, 24, 5, 7, 7, 6, 0, 0, 96, 144
        DC8 160, 64, 168, 144, 104, 2, 3, 3, 6, 1, 4, 192, 64, 128, 3, 7, 7, 6
        DC8 1, 0, 32, 64, 128, 128, 128, 64, 32, 3, 7, 7, 6, 1, 0, 128, 64, 32
        DC8 32, 32, 64, 128, 5, 5, 5, 6, 0, 1, 32, 168, 112, 168, 32, 5, 5, 5
        DC8 6, 0, 1, 32, 32, 248, 32, 32, 2, 3, 3, 6, 2, 255, 192, 64, 128, 5
        DC8 1, 1, 6, 0, 3, 248, 2, 2, 2, 6, 2, 0, 192, 192, 5, 5, 5, 6, 0, 1, 8
        DC8 16, 32, 64, 128, 5, 7, 7, 6, 0, 0, 112, 136, 152, 168, 200, 136
        DC8 112, 3, 7, 7, 6, 1, 0, 64, 192, 64, 64, 64, 64, 224, 5, 7, 7, 6, 0
        DC8 0, 112, 136, 8, 112, 128, 128, 248, 5, 7, 7, 6, 0, 0, 248, 16, 32
        DC8 16, 8, 8, 240, 5, 7, 7, 6, 0, 0, 16, 48, 80, 144, 248, 16, 16, 5, 7
        DC8 7, 6, 0, 0, 248, 128, 240, 8, 8, 136, 112, 5, 7, 7, 6, 0, 0, 112
        DC8 128, 128, 240, 136, 136, 112, 5, 7, 7, 6, 0, 0, 248, 8, 16, 32, 32
        DC8 32, 32, 5, 7, 7, 6, 0, 0, 112, 136, 136, 112, 136, 136, 112, 5, 7
        DC8 7, 6, 0, 0, 112, 136, 136, 120, 8, 8, 112, 2, 5, 5, 6, 2, 0, 192
        DC8 192, 0, 192, 192, 2, 6, 6, 6, 2, 255, 192, 192, 0, 192, 64, 128, 4
        DC8 7, 7, 6, 0, 0, 16, 32, 64, 128, 64, 32, 16, 5, 3, 3, 6, 0, 2, 248
        DC8 0, 248, 4, 7, 7, 6, 0, 0, 128, 64, 32, 16, 32, 64, 128, 5, 7, 7, 6
        DC8 0, 0, 112, 136, 8, 16, 32, 0, 32, 5, 7, 7, 6, 0, 0, 112, 136, 8
        DC8 104, 168, 168, 112, 5, 7, 7, 6, 0, 0, 112, 136, 136, 248, 136, 136
        DC8 136, 5, 7, 7, 6, 0, 0, 240, 136, 136, 240, 136, 136, 240, 5, 7, 7
        DC8 6, 0, 0, 112, 136, 128, 128, 128, 136, 112, 5, 7, 7, 6, 0, 0, 240
        DC8 136, 136, 136, 136, 136, 240, 5, 7, 7, 6, 0, 0, 248, 128, 128, 240
        DC8 128, 128, 248, 5, 7, 7, 6, 0, 0, 248, 128, 128, 240, 128, 128, 128
        DC8 5, 7, 7, 6, 0, 0, 112, 136, 128, 184, 136, 136, 112, 5, 7, 7, 6, 0
        DC8 0, 136, 136, 136, 248, 136, 136, 136, 1, 7, 7, 6, 2, 0, 128, 128
        DC8 128, 128, 128, 128, 128, 5, 7, 7, 6, 0, 0, 56, 16, 16, 16, 16, 144
        DC8 96, 5, 7, 7, 6, 0, 0, 136, 144, 160, 192, 160, 144, 136, 5, 7, 7, 6
        DC8 0, 0, 128, 128, 128, 128, 128, 128, 248, 5, 7, 7, 6, 0, 0, 136, 216
        DC8 168, 136, 136, 136, 136, 5, 7, 7, 6, 0, 0, 136, 136, 200, 168, 152
        DC8 136, 136, 5, 7, 7, 6, 0, 0, 112, 136, 136, 136, 136, 136, 112, 5, 7
        DC8 7, 6, 0, 0, 240, 136, 136, 240, 128, 128, 128, 5, 7, 7, 6, 0, 0
        DC8 112, 136, 136, 136, 168, 144, 104, 5, 7, 7, 6, 0, 0, 240, 136, 136
        DC8 240, 160, 144, 136, 5, 7, 7, 6, 0, 0, 120, 128, 128, 112, 8, 8, 240
        DC8 5, 7, 7, 6, 0, 0, 248, 32, 32, 32, 32, 32, 32, 5, 7, 7, 6, 0, 0
        DC8 136, 136, 136, 136, 136, 136, 112, 5, 7, 7, 6, 0, 0, 136, 136, 136
        DC8 136, 136, 80, 32, 5, 7, 7, 6, 0, 0, 136, 136, 136, 136, 136, 168
        DC8 80, 5, 7, 7, 6, 0, 0, 136, 136, 80, 32, 80, 136, 136, 5, 7, 7, 6, 0
        DC8 0, 136, 136, 136, 80, 32, 32, 32, 5, 7, 7, 6, 0, 0, 248, 8, 16, 32
        DC8 64, 128, 248, 3, 7, 7, 6, 0, 0, 224, 128, 128, 128, 128, 128, 224
        DC8 5, 5, 5, 6, 0, 1, 128, 64, 32, 16, 8, 3, 7, 7, 6, 0, 0, 224, 32, 32
        DC8 32, 32, 32, 224, 5, 3, 3, 6, 0, 4, 32, 80, 136, 5, 1, 1, 6, 0, 0
        DC8 248, 2, 2, 2, 6, 2, 5, 128, 64, 5, 5, 5, 6, 0, 0, 112, 8, 120, 136
        DC8 120, 5, 7, 7, 6, 0, 0, 128, 128, 176, 200, 136, 136, 240, 5, 5, 5
        DC8 6, 0, 0, 112, 128, 128, 136, 112, 5, 7, 7, 6, 0, 0, 8, 8, 104, 152
        DC8 136, 136, 120, 5, 5, 5, 6, 0, 0, 112, 136, 248, 128, 112, 5, 7, 7
        DC8 6, 0, 0, 48, 72, 224, 64, 64, 64, 64, 5, 6, 6, 6, 0, 255, 112, 136
        DC8 136, 120, 8, 112, 5, 7, 7, 6, 0, 0, 128, 128, 176, 200, 136, 136
        DC8 136, 1, 7, 7, 6, 2, 0, 128, 0, 128, 128, 128, 128, 128, 3, 8, 8, 6
        DC8 1, 255, 32, 0, 32, 32, 32, 32, 160, 64, 4, 7, 7, 6, 1, 0, 128, 128
        DC8 144, 160, 192, 160, 144, 3, 7, 7, 6, 1, 0, 192, 64, 64, 64, 64, 64
        DC8 224, 5, 5, 5, 6, 0, 0, 208, 168, 168, 168, 168, 5, 5, 5, 6, 0, 0
        DC8 176, 200, 136, 136, 136, 5, 5, 5, 6, 0, 0, 112, 136, 136, 136, 112
        DC8 5, 6, 6, 6, 0, 255, 240, 136, 136, 240, 128, 128, 5, 6, 6, 6, 0
        DC8 255, 120, 136, 136, 120, 8, 8, 5, 5, 5, 6, 0, 0, 176, 200, 128, 128
        DC8 128, 5, 5, 5, 6, 0, 0, 112, 128, 112, 8, 240, 4, 7, 7, 6, 0, 0, 64
        DC8 64, 224, 64, 64, 64, 48, 5, 5, 5, 6, 0, 0, 136, 136, 136, 152, 104
        DC8 5, 5, 5, 6, 0, 0, 136, 136, 136, 80, 32, 5, 5, 5, 6, 0, 0, 136, 136
        DC8 168, 168, 80, 5, 5, 5, 6, 0, 0, 136, 80, 32, 80, 136, 5, 6, 6, 6, 0
        DC8 255, 136, 136, 136, 120, 8, 112, 5, 5, 5, 6, 0, 0, 248, 16, 32, 64
        DC8 248, 3, 7, 7, 6, 1, 0, 32, 64, 64, 128, 64, 64, 32, 1, 7, 7, 6, 2
        DC8 0, 128, 128, 128, 128, 128, 128, 128, 3, 7, 7, 6, 1, 0, 128, 64, 64
        DC8 32, 64, 64, 128, 5, 2, 2, 6, 0, 3, 104, 144, 11, 11, 22, 12, 0, 255
        DC8 18, 0, 17, 0, 32, 0, 111, 224, 160, 0, 36, 64, 36, 64, 34, 64, 34
        DC8 128, 34, 128, 47, 224, 11, 11, 22, 12, 0, 255, 32, 0, 32, 0, 253
        DC8 224, 37, 32, 37, 32, 37, 32, 37, 32, 37, 32, 37, 32, 69, 224, 141
        DC8 32, 11, 11, 22, 12, 0, 255, 4, 0, 4, 0, 127, 192, 4, 0, 4, 0, 255
        DC8 224, 14, 0, 21, 0, 36, 128, 68, 96, 132, 0, 11, 11, 22, 12, 0, 255
        DC8 4, 0, 2, 0, 63, 224, 32, 32, 32, 32, 63, 224, 32, 0, 63, 224, 48
        DC8 32, 80, 32, 159, 224, 11, 11, 22, 12, 0, 255, 33, 0, 65, 0, 239
        DC8 224, 33, 0, 71, 192, 128, 0, 239, 224, 8, 32, 40, 32, 79, 224, 136
        DC8 32, 11, 11, 22, 12, 0, 255, 4, 0, 255, 224, 4, 0, 255, 224, 132, 32
        DC8 132, 32, 255, 224, 134, 32, 21, 0, 36, 128, 76, 96, 11, 11, 22, 12
        DC8 0, 255, 4, 0, 4, 0, 127, 192, 4, 0, 4, 0, 255, 224, 4, 0, 36, 128
        DC8 36, 128, 36, 128, 63, 192, 11, 11, 22, 12, 0, 255, 16, 64, 16, 64
        DC8 16, 64, 253, 224, 16, 64, 24, 192, 53, 64, 82, 64, 148, 64, 16, 64
        DC8 16, 192, 11, 11, 22, 12, 0, 255, 159, 192, 80, 64, 31, 192, 208, 64
        DC8 95, 192, 84, 0, 82, 192, 86, 0, 89, 224, 80, 0, 191, 224, 11, 11
        DC8 22, 12, 0, 255, 32, 64, 170, 64, 113, 64, 32, 64, 250, 64, 33, 64
        DC8 115, 224, 168, 64, 160, 64, 32, 64, 32, 64, 11, 11, 22, 12, 0, 255
        DC8 4, 0, 255, 224, 128, 32, 31, 0, 0, 0, 0, 0, 255, 224, 10, 0, 10, 0
        DC8 18, 32, 227, 224, 11, 11, 22, 12, 0, 255, 2, 128, 2, 64, 127, 224
        DC8 66, 0, 122, 0, 74, 64, 74, 64, 74, 128, 89, 32, 66, 160, 140, 96
        DC8 11, 11, 22, 12, 0, 255, 63, 128, 0, 0, 0, 0, 0, 0, 255, 224, 4, 0
        DC8 8, 0, 17, 0, 32, 128, 127, 192, 0, 32, 11, 11, 22, 12, 0, 255, 123
        DC8 224, 74, 32, 74, 160, 122, 96, 74, 0, 75, 224, 122, 32, 75, 32, 74
        DC8 160, 74, 64, 155, 160, 11, 11, 22, 12, 0, 255, 16, 0, 63, 128, 81
        DC8 0, 30, 0, 49, 128, 196, 96, 4, 0, 127, 192, 8, 64, 16, 64, 97, 128
        DC8 11, 11, 22, 12, 0, 255, 252, 0, 73, 224, 75, 32, 121, 32, 73, 32
        DC8 121, 32, 73, 32, 77, 64, 248, 128, 9, 64, 10, 32, 11, 11, 22, 12, 0
        DC8 255, 5, 64, 131, 128, 79, 224, 8, 32, 136, 32, 79, 224, 8, 32, 47
        DC8 224, 72, 32, 136, 32, 16, 96, 11, 11, 22, 12, 0, 255, 247, 192, 148
        DC8 64, 164, 64, 199, 192, 164, 64, 148, 64, 151, 192, 212, 64, 180, 64
        DC8 132, 64, 143, 224, 11, 11, 22, 12, 0, 255, 129, 0, 79, 224, 1, 0
        DC8 231, 192, 33, 0, 47, 224, 36, 64, 39, 192, 36, 64, 55, 192, 36, 64
        DC8 11, 11, 22, 12, 0, 255, 32, 32, 39, 192, 36, 0, 244, 0, 39, 224
        DC8 117, 64, 173, 64, 37, 64, 36, 128, 41, 64, 42, 32, 11, 11, 22, 12
        DC8 0, 255, 33, 64, 33, 32, 161, 0, 111, 224, 33, 0, 34, 128, 98, 128
        DC8 162, 128, 36, 64, 36, 64, 40, 32, 11, 11, 22, 12, 0, 255, 4, 0, 4
        DC8 0, 255, 224, 4, 0, 10, 0, 17, 0, 228, 224, 2, 0, 84, 32, 82, 160
        DC8 143, 128, 11, 11, 22, 12, 0, 255, 130, 0, 66, 0, 31, 224, 196, 0
        DC8 73, 0, 95, 224, 65, 0, 95, 224, 65, 0, 65, 0, 191, 224, 11, 11, 22
        DC8 12, 0, 255, 65, 0, 239, 224, 68, 64, 66, 128, 111, 224, 193, 0, 79
        DC8 224, 66, 64, 66, 64, 193, 128, 78, 96, 11, 11, 22, 12, 0, 255, 66
        DC8 0, 65, 0, 239, 224, 72, 32, 72, 32, 111, 224, 200, 32, 72, 0, 72, 0
        DC8 72, 0, 208, 0, 10, 11, 22, 12, 0, 255, 127, 192, 68, 64, 68, 64
        DC8 127, 192, 68, 64, 68, 64, 127, 192, 68, 64, 68, 64, 68, 64, 129
        DC8 192, 11, 11, 22, 12, 0, 255, 4, 0, 2, 0, 63, 224, 32, 32, 32, 32
        DC8 63, 224, 32, 32, 32, 0, 64, 0, 64, 0, 128, 0, 11, 11, 22, 12, 0
        DC8 255, 65, 0, 125, 0, 129, 224, 126, 32, 69, 32, 85, 32, 254, 32, 69
        DC8 64, 84, 128, 125, 64, 10, 32, 11, 11, 22, 12, 0, 255, 4, 0, 4, 0
        DC8 255, 224, 132, 32, 132, 32, 132, 32, 255, 224, 132, 32, 4, 0, 4, 0
        DC8 4, 0, 11, 11, 22, 12, 0, 255, 127, 192, 4, 0, 4, 0, 4, 0, 255, 224
        DC8 4, 0, 4, 0, 4, 0, 4, 0, 4, 0, 28, 0, 11, 11, 22, 12, 0, 255, 255
        DC8 224, 2, 0, 2, 0, 4, 0, 13, 0, 20, 128, 36, 64, 196, 32, 4, 0, 4, 0
        DC8 4, 0, 11, 11, 22, 12, 0, 255, 249, 0, 138, 0, 171, 224, 172, 64
        DC8 170, 64, 170, 64, 170, 64, 170, 128, 33, 0, 82, 128, 140, 96, 11
        DC8 11, 22, 12, 0, 255, 36, 0, 36, 0, 63, 128, 68, 0, 132, 0, 4, 0, 255
        DC8 224, 10, 0, 17, 0, 32, 128, 192, 96, 11, 11, 22, 12, 0, 255, 36, 0
        DC8 36, 0, 63, 192, 68, 0, 4, 0, 255, 224, 9, 0, 9, 0, 17, 32, 33, 32
        DC8 64, 224, 11, 11, 22, 12, 0, 255, 32, 0, 61, 224, 81, 32, 145, 32
        DC8 17, 32, 255, 32, 17, 32, 41, 32, 37, 224, 69, 32, 128, 0, 11, 11
        DC8 22, 12, 0, 255, 32, 128, 127, 192, 8, 64, 255, 224, 17, 0, 32, 128
        DC8 95, 64, 128, 32, 63, 128, 0, 0, 127, 192, 11, 11, 22, 12, 0, 255
        DC8 34, 64, 71, 224, 148, 128, 228, 128, 47, 224, 68, 128, 244, 128, 7
        DC8 224, 52, 128, 196, 128, 7, 224, 11, 11, 22, 12, 0, 255, 4, 128, 143
        DC8 224, 73, 0, 25, 0, 47, 192, 9, 0, 9, 0, 47, 192, 73, 0, 137, 0, 15
        DC8 224, 11, 11, 22, 12, 0, 255, 16, 0, 63, 128, 81, 0, 14, 0, 49, 128
        DC8 192, 96, 63, 128, 36, 128, 63, 128, 36, 128, 63, 128, 11, 11, 22
        DC8 12, 0, 255, 34, 128, 250, 64, 7, 224, 250, 128, 138, 128, 138, 128
        DC8 250, 128, 34, 128, 178, 128, 170, 160, 100, 224, 11, 11, 22, 12, 0
        DC8 255, 34, 32, 71, 64, 146, 128, 239, 224, 34, 0, 71, 192, 236, 64, 7
        DC8 192, 52, 64, 199, 192, 4, 64, 11, 11, 22, 12, 0, 255, 8, 0, 15, 192
        DC8 8, 0, 8, 0, 255, 224, 8, 0, 14, 0, 9, 128, 8, 64, 8, 0, 8, 0, 10
        DC8 11, 22, 12, 0, 255, 255, 128, 0, 128, 0, 128, 128, 128, 128, 128
        DC8 255, 128, 128, 0, 128, 0, 128, 64, 128, 64, 127, 192, 11, 11, 22
        DC8 12, 0, 255, 71, 192, 65, 0, 239, 224, 65, 0, 69, 0, 105, 96, 201
        DC8 32, 77, 96, 73, 32, 79, 224, 200, 32, 11, 11, 22, 12, 0, 255, 8, 0
        DC8 4, 0, 4, 0, 10, 0, 10, 0, 10, 0, 17, 0, 17, 0, 32, 128, 64, 64, 128
        DC8 32, 11, 11, 22, 12, 0, 255, 34, 64, 34, 0, 247, 224, 34, 0, 35, 224
        DC8 53, 32, 229, 32, 37, 64, 40, 128, 41, 64, 114, 32, 11, 10, 20, 12
        DC8 0, 0, 68, 64, 68, 64, 68, 64, 127, 192, 4, 0, 4, 0, 132, 32, 132
        DC8 32, 132, 32, 255, 224, 11, 11, 22, 12, 0, 255, 4, 0, 0, 0, 127, 192
        DC8 4, 0, 4, 0, 4, 0, 127, 192, 4, 0, 4, 0, 4, 0, 255, 224, 11, 11, 22
        DC8 12, 0, 255, 255, 224, 17, 0, 1, 192, 254, 0, 72, 128, 37, 0, 4, 0
        DC8 255, 224, 21, 0, 36, 128, 196, 96, 11, 11, 22, 12, 0, 255, 17, 0
        DC8 127, 192, 68, 64, 127, 192, 68, 64, 127, 192, 4, 0, 255, 224, 4, 0
        DC8 4, 0, 4, 0, 9, 11, 22, 12, 0, 255, 16, 0, 255, 128, 128, 128, 128
        DC8 128, 255, 128, 128, 128, 128, 128, 255, 128, 128, 128, 128, 128
        DC8 255, 128, 11, 11, 22, 12, 0, 255, 113, 0, 1, 0, 3, 224, 249, 32, 33
        DC8 32, 65, 32, 81, 32, 137, 32, 250, 32, 2, 32, 4, 192, 11, 11, 22, 12
        DC8 0, 255, 127, 192, 17, 0, 17, 0, 17, 0, 17, 0, 255, 224, 17, 0, 17
        DC8 0, 33, 0, 33, 0, 65, 0, 11, 11, 22, 12, 0, 255, 33, 0, 34, 0, 244
        DC8 64, 87, 224, 80, 32, 87, 192, 148, 64, 84, 64, 36, 64, 87, 192, 148
        DC8 64, 11, 11, 22, 12, 0, 255, 17, 0, 10, 0, 127, 192, 4, 0, 4, 0, 255
        DC8 224, 4, 0, 10, 0, 17, 0, 32, 128, 192, 96, 10, 11, 22, 12, 0, 255
        DC8 95, 192, 0, 64, 132, 64, 132, 64, 191, 64, 132, 64, 140, 64, 148
        DC8 64, 164, 64, 140, 64, 129, 192, 11, 11, 22, 12, 0, 255, 36, 0, 39
        DC8 192, 36, 0, 36, 0, 255, 224, 0, 0, 20, 64, 36, 128, 71, 0, 12, 0
        DC8 112, 0, 11, 11, 22, 12, 0, 255, 36, 128, 4, 128, 15, 192, 228, 128
        DC8 36, 128, 63, 224, 36, 128, 36, 128, 40, 128, 80, 0, 143, 224, 11
        DC8 11, 22, 12, 0, 255, 8, 0, 8, 0, 255, 128, 136, 128, 136, 128, 255
        DC8 128, 136, 128, 136, 128, 255, 160, 136, 32, 7, 224, 11, 11, 22, 12
        DC8 0, 255, 39, 128, 36, 128, 244, 128, 36, 128, 116, 128, 108, 128
        DC8 164, 128, 36, 128, 36, 160, 40, 160, 48, 96, 10, 11, 22, 12, 0, 255
        DC8 255, 192, 128, 64, 128, 64, 158, 64, 146, 64, 146, 64, 158, 64, 128
        DC8 64, 128, 64, 255, 192, 128, 64, 11, 11, 22, 12, 0, 255, 127, 192
        DC8 68, 0, 95, 192, 80, 64, 95, 192, 80, 64, 95, 192, 66, 0, 74, 128
        DC8 82, 64, 166, 32, 11, 11, 22, 12, 0, 255, 4, 0, 7, 224, 4, 0, 127
        DC8 192, 64, 64, 64, 64, 64, 64, 127, 192, 0, 0, 82, 64, 137, 32, 11
        DC8 11, 22, 12, 0, 255, 71, 128, 36, 128, 4, 128, 4, 128, 232, 96, 32
        DC8 0, 47, 192, 36, 64, 34, 128, 49, 0, 38, 192, 11, 11, 22, 12, 0, 255
        DC8 127, 192, 74, 64, 127, 192, 4, 0, 255, 224, 4, 0, 63, 128, 32, 128
        DC8 36, 128, 36, 128, 255, 224, 11, 11, 22, 12, 0, 255, 34, 0, 79, 224
        DC8 72, 32, 79, 224, 200, 0, 79, 224, 74, 160, 90, 160, 111, 224, 74
        DC8 160, 72, 96, 11, 11, 22, 12, 0, 255, 243, 192, 36, 64, 42, 128, 241
        DC8 0, 34, 128, 101, 224, 114, 32, 165, 64, 32, 128, 35, 0, 44, 0, 11
        DC8 11, 22, 12, 0, 255, 4, 0, 255, 224, 128, 32, 0, 0, 255, 224, 4, 0
        DC8 36, 0, 39, 192, 36, 0, 84, 0, 143, 224, 11, 11, 22, 12, 0, 255, 115
        DC8 224, 16, 128, 81, 0, 35, 224, 250, 32, 42, 160, 34, 160, 34, 160
        DC8 32, 128, 33, 64, 98, 32, 11, 11, 22, 12, 0, 255, 34, 0, 247, 128
        DC8 34, 128, 54, 128, 226, 160, 37, 160, 36, 96, 104, 32, 0, 0, 82, 64
        DC8 137, 32, 11, 11, 22, 12, 0, 255, 115, 192, 66, 0, 66, 0, 123, 224
        DC8 74, 64, 74, 64, 122, 64, 74, 64, 66, 64, 68, 64, 136, 64, 11, 11
        DC8 22, 12, 0, 255, 8, 0, 255, 224, 8, 0, 31, 192, 48, 64, 95, 192, 144
        DC8 64, 31, 192, 16, 64, 16, 64, 16, 192, 11, 11, 22, 12, 0, 255, 2, 0
        DC8 127, 224, 66, 0, 66, 0, 95, 192, 66, 0, 71, 0, 74, 128, 82, 64, 98
        DC8 32, 130, 0, 11, 11, 22, 12, 0, 255, 243, 192, 150, 64, 145, 128
        DC8 166, 96, 161, 0, 151, 192, 145, 0, 149, 0, 231, 224, 129, 0, 129, 0
        DC8 11, 11, 22, 12, 0, 255, 15, 128, 136, 128, 79, 128, 8, 128, 143
        DC8 128, 64, 0, 31, 192, 53, 64, 85, 64, 149, 64, 63, 224, 11, 11, 22
        DC8 12, 0, 255, 39, 224, 32, 128, 248, 128, 32, 128, 32, 128, 56, 128
        DC8 224, 128, 32, 128, 32, 128, 32, 128, 97, 128, 11, 11, 22, 12, 0
        DC8 255, 31, 224, 145, 0, 87, 192, 20, 64, 23, 192, 148, 64, 87, 192
        DC8 17, 0, 85, 64, 153, 32, 35, 0, 11, 11, 22, 12, 0, 255, 32, 128, 39
        DC8 224, 242, 64, 33, 128, 34, 64, 52, 32, 226, 64, 34, 64, 34, 64, 34
        DC8 64, 100, 64, 11, 11, 22, 12, 0, 255, 65, 0, 65, 0, 79, 224, 233, 32
        DC8 73, 32, 73, 32, 111, 224, 201, 32, 73, 32, 73, 32, 207, 224, 11, 11
        DC8 22, 12, 0, 255, 33, 0, 241, 0, 79, 224, 169, 32, 249, 32, 47, 224
        DC8 57, 32, 233, 32, 41, 32, 47, 224, 40, 32, 11, 11, 22, 12, 0, 255
        DC8 143, 224, 73, 32, 9, 32, 203, 160, 73, 32, 79, 224, 72, 32, 75, 160
        DC8 74, 160, 107, 160, 80, 224, 11, 11, 22, 12, 0, 255, 127, 192, 4, 0
        DC8 68, 64, 36, 64, 36, 128, 4, 0, 255, 224, 4, 0, 4, 0, 4, 0, 4, 0, 11
        DC8 11, 22, 12, 0, 255, 130, 0, 66, 0, 31, 224, 194, 0, 95, 192, 82, 64
        DC8 95, 192, 71, 0, 74, 128, 82, 64, 191, 224, 11, 11, 22, 12, 0, 255
        DC8 4, 0, 127, 224, 72, 128, 127, 224, 72, 128, 79, 128, 64, 0, 95, 192
        DC8 72, 64, 71, 128, 152, 96, 11, 11, 22, 12, 0, 255, 1, 0, 239, 224
        DC8 161, 0, 164, 64, 175, 224, 164, 64, 175, 224, 169, 32, 233, 32, 2
        DC8 128, 12, 96, 11, 11, 22, 12, 0, 255, 20, 192, 246, 160, 188, 96
        DC8 167, 128, 168, 128, 191, 224, 169, 32, 239, 224, 9, 32, 15, 224, 9
        DC8 32, 11, 11, 22, 12, 0, 255, 127, 128, 64, 128, 66, 128, 98, 128, 84
        DC8 128, 72, 128, 72, 128, 84, 160, 98, 160, 64, 96, 128, 32, 11, 11
        DC8 22, 12, 0, 255, 4, 0, 127, 224, 64, 32, 127, 224, 64, 0, 125, 224
        DC8 84, 32, 76, 160, 84, 96, 100, 160, 141, 96, 11, 11, 22, 12, 0, 255
        DC8 130, 0, 95, 224, 4, 0, 8, 64, 159, 224, 64, 32, 10, 128, 10, 128
        DC8 74, 160, 146, 160, 34, 96, 11, 11, 22, 12, 0, 255, 65, 0, 79, 224
        DC8 232, 32, 66, 128, 68, 64, 104, 32, 199, 192, 65, 0, 65, 0, 65, 0
        DC8 207, 224, 11, 11, 22, 12, 0, 255, 80, 32, 125, 32, 145, 32, 255, 32
        DC8 17, 32, 125, 32, 85, 32, 85, 32, 84, 32, 92, 32, 16, 224, 11, 11
        DC8 22, 12, 0, 255, 63, 128, 32, 128, 63, 128, 32, 128, 255, 224, 72, 0
        DC8 123, 192, 73, 64, 121, 64, 72, 128, 251, 96, 11, 11, 22, 12, 0, 255
        DC8 4, 0, 4, 0, 4, 0, 36, 128, 36, 64, 68, 64, 68, 32, 132, 32, 4, 0, 4
        DC8 0, 28, 0, 11, 11, 22, 12, 0, 255, 4, 0, 4, 0, 4, 0, 255, 224, 4, 0
        DC8 10, 0, 10, 0, 17, 0, 17, 0, 32, 128, 192, 96, 9, 10, 20, 10, 0, 0
        DC8 136, 128, 73, 0, 8, 0, 255, 128, 0, 128, 0, 128, 127, 128, 0, 128
        DC8 0, 128, 255, 128, 11, 11, 22, 12, 0, 255, 33, 0, 18, 0, 255, 224, 0
        DC8 0, 120, 128, 74, 128, 122, 128, 74, 128, 122, 128, 72, 128, 89, 128
        DC8 11, 11, 22, 12, 0, 255, 39, 192, 0, 0, 0, 0, 239, 224, 33, 0, 34, 0
        DC8 36, 64, 47, 224, 32, 32, 80, 0, 143, 224, 11, 11, 22, 12, 0, 255
        DC8 32, 128, 39, 0, 249, 0, 33, 192, 119, 0, 33, 0, 249, 224, 39, 0
        DC8 113, 32, 169, 32, 32, 224, 11, 11, 22, 12, 0, 255, 16, 64, 16, 64
        DC8 253, 224, 16, 64, 56, 192, 53, 64, 82, 64, 148, 64, 16, 64, 16, 64
        DC8 16, 192, 11, 11, 22, 12, 0, 255, 0, 64, 248, 64, 11, 224, 8, 64
        DC8 136, 64, 82, 64, 81, 64, 33, 64, 80, 64, 72, 64, 137, 192, 10, 11
        DC8 22, 12, 0, 255, 132, 0, 132, 64, 132, 128, 245, 0, 134, 0, 132, 0
        DC8 132, 0, 148, 0, 164, 64, 196, 64, 131, 192, 11, 11, 22, 12, 0, 255
        DC8 17, 32, 125, 0, 17, 0, 255, 224, 41, 0, 253, 64, 73, 64, 124, 128
        DC8 8, 160, 253, 96, 10, 32, 11, 11, 22, 12, 0, 255, 23, 192, 36, 64
        DC8 36, 64, 103, 192, 161, 0, 47, 224, 33, 0, 35, 128, 37, 64, 41, 32
        DC8 33, 0, 11, 11, 22, 12, 0, 255, 8, 0, 255, 224, 16, 0, 39, 192, 32
        DC8 128, 97, 0, 175, 224, 33, 0, 33, 0, 33, 0, 35, 0, 11, 11, 22, 12, 0
        DC8 255, 36, 0, 47, 224, 180, 0, 164, 128, 164, 160, 170, 192, 42, 128
        DC8 40, 128, 41, 64, 50, 64, 36, 32, 11, 11, 22, 12, 0, 255, 127, 224
        DC8 128, 0, 63, 192, 32, 64, 63, 192, 16, 0, 31, 192, 16, 64, 40, 128
        DC8 71, 0, 56, 224, 11, 11, 22, 12, 0, 255, 127, 224, 64, 0, 64, 0, 64
        DC8 0, 64, 0, 64, 0, 64, 0, 64, 0, 64, 0, 64, 0, 128, 0, 11, 11, 22, 12
        DC8 0, 255, 255, 224, 4, 0, 127, 192, 68, 64, 127, 192, 68, 64, 127
        DC8 192, 68, 0, 36, 0, 24, 0, 231, 224, 11, 11, 22, 12, 0, 255, 17, 224
        DC8 253, 0, 69, 0, 41, 224, 253, 64, 17, 64, 125, 64, 17, 64, 85, 64
        DC8 146, 64, 52, 64, 11, 11, 22, 12, 0, 255, 33, 0, 95, 224, 64, 0, 207
        DC8 192, 64, 0, 79, 192, 64, 0, 79, 192, 72, 64, 79, 192, 72, 64, 11
        DC8 11, 22, 12, 0, 255, 4, 0, 127, 192, 64, 64, 127, 192, 64, 64, 127
        DC8 192, 64, 64, 127, 192, 4, 64, 82, 32, 191, 160, 11, 11, 22, 12, 0
        DC8 255, 127, 192, 68, 64, 127, 192, 68, 64, 127, 192, 4, 0, 27, 0, 224
        DC8 224, 17, 0, 17, 0, 97, 0, 11, 11, 22, 12, 0, 255, 255, 224, 4, 0, 8
        DC8 0, 127, 224, 73, 32, 79, 32, 73, 32, 79, 32, 73, 32, 73, 32, 127
        DC8 224, 11, 11, 22, 12, 0, 255, 253, 224, 86, 64, 121, 64, 56, 128, 85
        DC8 64, 146, 32, 255, 224, 4, 0, 39, 192, 36, 0, 255, 224, 11, 11, 22
        DC8 12, 0, 255, 251, 128, 82, 0, 123, 224, 18, 64, 250, 64, 20, 64, 63
        DC8 128, 32, 128, 63, 128, 32, 128, 63, 128, 11, 11, 22, 12, 0, 255, 31
        DC8 224, 32, 0, 39, 192, 100, 64, 167, 192, 32, 0, 47, 224, 40, 32, 39
        DC8 192, 33, 0, 35, 0, 11, 11, 22, 12, 0, 255, 243, 224, 130, 32, 130
        DC8 32, 250, 32, 130, 32, 130, 32, 138, 32, 178, 32, 194, 224, 2, 0, 2
        DC8 0, 11, 11, 22, 12, 0, 255, 36, 128, 70, 160, 149, 192, 228, 128, 39
        DC8 224, 68, 128, 245, 192, 6, 160, 52, 128, 196, 128, 7, 224, 11, 11
        DC8 22, 12, 0, 255, 39, 192, 65, 0, 135, 224, 224, 32, 34, 128, 69, 128
        DC8 242, 128, 15, 224, 48, 128, 193, 64, 2, 32, 11, 11, 22, 12, 0, 255
        DC8 2, 0, 2, 0, 34, 0, 35, 192, 34, 0, 34, 0, 34, 0, 34, 0, 34, 0, 34
        DC8 0, 255, 224, 9, 11, 22, 12, 0, 255, 8, 0, 8, 0, 255, 128, 136, 128
        DC8 136, 128, 136, 128, 255, 128, 136, 128, 136, 128, 136, 128, 255
        DC8 128, 11, 11, 22, 12, 0, 255, 33, 0, 83, 160, 65, 0, 247, 224, 81, 0
        DC8 83, 192, 86, 64, 83, 192, 90, 64, 83, 192, 66, 64, 11, 11, 22, 12
        DC8 0, 255, 127, 192, 4, 0, 4, 0, 4, 0, 255, 224, 10, 0, 10, 0, 18, 0
        DC8 34, 32, 66, 32, 129, 224, 11, 11, 22, 12, 0, 255, 17, 0, 33, 0, 47
        DC8 224, 97, 0, 163, 128, 35, 128, 37, 64, 37, 64, 41, 32, 33, 0, 33, 0
        DC8 11, 11, 22, 12, 0, 255, 247, 224, 148, 32, 244, 32, 151, 224, 148
        DC8 128, 244, 128, 151, 224, 148, 128, 244, 160, 150, 96, 4, 32, 11, 11
        DC8 22, 12, 0, 255, 123, 224, 148, 128, 4, 0, 127, 192, 4, 0, 255, 224
        DC8 1, 0, 255, 224, 33, 0, 17, 0, 7, 0, 11, 11, 22, 12, 0, 255, 33, 0
        DC8 71, 192, 145, 0, 47, 224, 96, 128, 175, 224, 32, 128, 36, 128, 34
        DC8 128, 32, 128, 35, 128, 11, 11, 22, 12, 0, 255, 39, 192, 36, 64, 247
        DC8 192, 46, 224, 42, 160, 62, 224, 225, 0, 47, 224, 35, 128, 37, 64
        DC8 105, 32, 11, 11, 22, 12, 0, 255, 20, 0, 39, 224, 42, 0, 98, 0, 163
        DC8 192, 34, 0, 34, 0, 35, 224, 34, 0, 34, 0, 34, 0, 0, 0, 0

        SECTION `.text`:CODE:NOROOT(1)
          CFI Block cfiBlock3 Using cfiCommon0
          CFI Function _Z9lcd_printc
        THUMB
// __interwork __softfp void lcd_print(char)
_Z9lcd_printc:
        PUSH     {R3-R5,LR}
          CFI R14 Frame(CFA, -4)
          CFI R5 Frame(CFA, -8)
          CFI R4 Frame(CFA, -12)
          CFI CFA R13+16
        MOV      R4,R0
        SUBS     R0,R0,#+1
        CMP      R0,#+9
        BCS.N    ??lcd_print_0
        LDR.W    R5,??DataTable101
        ADR.W    R1,Marlin_symbols
        MOV      R0,R5
          CFI FunCall _ZN6U8GLIB7setFontEPKh
        BL       _ZN6U8GLIB7setFontEPKh
        MOV      R1,R4
        MOV      R0,R5
          CFI FunCall _ZN5Print5printEc
        BL       _ZN5Print5printEc
        LDR.W    R0,??DataTable102
        LDRSB    R0,[R0, #+0]
        POP      {R1,R4,R5,LR}
          CFI R4 SameValue
          CFI R5 SameValue
          CFI R14 SameValue
          CFI CFA R13+0
          CFI FunCall _ZN34_INTERNAL_12_ultralcd_cpp_6629db9211lcd_setFontEc
        B.W      _ZN34_INTERNAL_12_ultralcd_cpp_6629db9211lcd_setFontEc
          CFI R4 Frame(CFA, -12)
          CFI R5 Frame(CFA, -8)
          CFI R14 Frame(CFA, -4)
          CFI CFA R13+16
??lcd_print_0:
        MOV      R0,R4
        POP      {R1,R4,R5,LR}
          CFI R4 SameValue
          CFI R5 SameValue
          CFI R14 SameValue
          CFI CFA R13+0
          CFI FunCall _Z14charset_mapperc
        B.W      _Z14charset_mapperc
          CFI EndBlock cfiBlock3

        SECTION `.text`:CODE:NOROOT(1)
          CFI Block cfiBlock4 Using cfiCommon0
          CFI Function _Z19lcd_print_and_countc
        THUMB
// __interwork __softfp char lcd_print_and_count(char)
_Z19lcd_print_and_countc:
        PUSH     {R3-R5,LR}
          CFI R14 Frame(CFA, -4)
          CFI R5 Frame(CFA, -8)
          CFI R4 Frame(CFA, -12)
          CFI CFA R13+16
        MOV      R4,R0
        SUBS     R0,R0,#+1
        CMP      R0,#+9
        BCS.N    ??lcd_print_and_count_0
        LDR.W    R5,??DataTable101
        ADR.W    R1,Marlin_symbols
        MOV      R0,R5
          CFI FunCall _ZN6U8GLIB7setFontEPKh
        BL       _ZN6U8GLIB7setFontEPKh
        MOV      R1,R4
        MOV      R0,R5
          CFI FunCall _ZN5Print5printEc
        BL       _ZN5Print5printEc
        LDR.W    R0,??DataTable102
        LDRSB    R0,[R0, #+0]
          CFI FunCall _ZN34_INTERNAL_12_ultralcd_cpp_6629db9211lcd_setFontEc
        BL       _ZN34_INTERNAL_12_ultralcd_cpp_6629db9211lcd_setFontEc
        MOVS     R0,#+1
        POP      {R1,R4,R5,PC}
??lcd_print_and_count_0:
        MOV      R0,R4
        POP      {R1,R4,R5,LR}
          CFI R4 SameValue
          CFI R5 SameValue
          CFI R14 SameValue
          CFI CFA R13+0
          CFI FunCall _Z14charset_mapperc
        B.W      _Z14charset_mapperc
          CFI EndBlock cfiBlock4

        SECTION `.text`:CODE:NOROOT(2)
        SECTION_TYPE SHT_PROGBITS, 0
        DATA
// static __absolute uint8_t const Marlin_symbols[140]
Marlin_symbols:
        DC8 0, 6, 9, 0, 254, 0, 0, 0, 0, 0, 1, 9, 0, 8, 254, 0, 0, 5, 8, 8, 6
        DC8 0, 0, 64, 240, 200, 136, 136, 152, 120, 16, 5, 8, 8, 6, 0, 0, 192
        DC8 248, 136, 136, 136, 136, 136, 248, 5, 5, 5, 6, 0, 1, 32, 48, 248
        DC8 48, 32, 5, 8, 8, 6, 0, 0, 32, 112, 248, 32, 32, 32, 32, 224, 5, 9
        DC8 9, 6, 0, 255, 32, 112, 168, 168, 184, 136, 136, 112, 32, 5, 9, 9, 6
        DC8 0, 255, 224, 128, 192, 176, 168, 40, 48, 40, 40, 5, 9, 9, 6, 0, 255
        DC8 248, 168, 136, 136, 136, 136, 136, 168, 248, 5, 10, 10, 6, 0, 254
        DC8 32, 80, 80, 80, 80, 136, 168, 168, 136, 112, 3, 3, 3, 6, 0, 3, 64
        DC8 160, 64

        SECTION `.text`:CODE:NOROOT(1)
          CFI Block cfiBlock5 Using cfiCommon0
          CFI Function _Z9lcd_printPKc
        THUMB
// __interwork __softfp void lcd_print(char const *)
_Z9lcd_printPKc:
        PUSH     {R3-R5,LR}
          CFI R14 Frame(CFA, -4)
          CFI R5 Frame(CFA, -8)
          CFI R4 Frame(CFA, -12)
          CFI CFA R13+16
        MOV      R4,R0
        MOVS     R5,#+0
        B.N      ??lcd_print_1
??lcd_print_2:
          CFI FunCall _Z9lcd_printc
        BL       _Z9lcd_printc
        ADDS     R5,R5,#+1
??lcd_print_1:
        MOV      R0,R5
        UXTB     R0,R0
        LDRSB    R0,[R4, R0]
        MOVS     R1,R0
        BNE.N    ??lcd_print_2
        POP      {R0,R4,R5,PC}    ;; return
          CFI EndBlock cfiBlock5

        SECTION `.text`:CODE:NOROOT(1)
          CFI Block cfiBlock6 Using cfiCommon0
          CFI Function _Z12lcd_printPGMPKc
        THUMB
// __interwork __softfp void lcd_printPGM(char const *)
_Z12lcd_printPGMPKc:
        PUSH     {R4,LR}
          CFI R14 Frame(CFA, -4)
          CFI R4 Frame(CFA, -8)
          CFI CFA R13+8
        MOV      R4,R0
        B.N      ??lcd_printPGM_0
??lcd_printPGM_1:
          CFI FunCall _Z9lcd_printc
        BL       _Z9lcd_printc
        ADDS     R4,R4,#+1
??lcd_printPGM_0:
        LDRSB    R0,[R4, #+0]
        MOVS     R1,R0
        BNE.N    ??lcd_printPGM_1
        POP      {R4,PC}          ;; return
          CFI EndBlock cfiBlock6

        SECTION `.text`:CODE:NOROOT(1)
          CFI Block cfiBlock7 Using cfiCommon0
          CFI Function _ZN34_INTERNAL_12_ultralcd_cpp_6629db9223lcd_implementation_initEv
        THUMB
// static __interwork __softfp void lcd_implementation_init()
_ZN34_INTERNAL_12_ultralcd_cpp_6629db9223lcd_implementation_initEv:
        PUSH     {R1-R9,LR}
          CFI R14 Frame(CFA, -4)
          CFI R9 Frame(CFA, -8)
          CFI R8 Frame(CFA, -12)
          CFI R7 Frame(CFA, -16)
          CFI R6 Frame(CFA, -20)
          CFI R5 Frame(CFA, -24)
          CFI R4 Frame(CFA, -28)
          CFI CFA R13+40
        LDR.W    R4,??DataTable101
        LDR.W    R5,??DataTable104
        LDR      R0,[R5, #+4]
        MOV      R1,R0
        UXTB     R1,R1
        MOV      R0,R4
          CFI FunCall _ZN6U8GLIB11setContrastEh
        BL       _ZN6U8GLIB11setContrastEh
        MOV      R0,R4
          CFI FunCall _ZN6U8GLIB9setRot180Ev
        BL       _ZN6U8GLIB9setRot180Ev
        MOV      R0,R4
          CFI FunCall _ZN6U8GLIB8getWidthEv
        BL       _ZN6U8GLIB8getWidthEv
        MOV      R6,R0
        SUBS     R6,R6,#+128
        ADD      R6,R6,R6, LSR #+31
        ASRS     R6,R6,#+1
        MOV      R0,R4
          CFI FunCall _ZN6U8GLIB8getWidthEv
        BL       _ZN6U8GLIB8getWidthEv
        MOV      R7,R0
        SUBS     R7,R7,#+6
        LSRS     R7,R7,#+1
        LDRB     R0,[R5, #+0]
        CMP      R0,#+0
        BEQ.N    ??lcd_implementation_init_0
        MOV      R0,R4
          CFI FunCall _ZN6U8GLIB9firstPageEv
        BL       _ZN6U8GLIB9firstPageEv
        ADR.W    R9,??DataTable94  ;; " "
??lcd_implementation_init_1:
        ADR.W    R0,start_bmp
        STR      R0,[SP, #+4]
        MOVS     R0,#+64
        STR      R0,[SP, #+0]
        MOVS     R3,#+16
        MOVS     R2,#+0
        MOV      R1,R6
        UXTB     R1,R1
        MOV      R0,R4
          CFI FunCall _ZN6U8GLIB11drawBitmapPEhhhhPKh
        BL       _ZN6U8GLIB11drawBitmapPEhhhhPKh
        MOVS     R0,#+4
          CFI FunCall _ZN34_INTERNAL_12_ultralcd_cpp_6629db9211lcd_setFontEc
        BL       _ZN34_INTERNAL_12_ultralcd_cpp_6629db9211lcd_setFontEc
        MOV      R0,R4
          CFI FunCall _ZN6U8GLIB8getWidthEv
        BL       _ZN6U8GLIB8getWidthEv
        MOV      R8,R0
        SUB      R8,R8,#+6
        LSR      R8,R8,#+1
        MOV      R0,R4
          CFI FunCall _ZN6U8GLIB9getHeightEv
        BL       _ZN6U8GLIB9getHeightEv
        MOV      R3,R9
        SUB      R2,R0,#+18
        UXTB     R2,R2
        MOV      R1,R7
        UXTB     R1,R1
        MOV      R0,R4
          CFI FunCall _ZN6U8GLIB7drawStrEhhPKc
        BL       _ZN6U8GLIB7drawStrEhhPKc
        MOV      R0,R4
          CFI FunCall _ZN6U8GLIB9getHeightEv
        BL       _ZN6U8GLIB9getHeightEv
        MOV      R3,R9
        SUBS     R2,R0,#+6
        UXTB     R2,R2
        MOV      R1,R8
        UXTB     R1,R1
        MOV      R0,R4
          CFI FunCall _ZN6U8GLIB7drawStrEhhPKc
        BL       _ZN6U8GLIB7drawStrEhhPKc
        MOV      R0,R4
          CFI FunCall _ZN6U8GLIB8nextPageEv
        BL       _ZN6U8GLIB8nextPageEv
        CMP      R0,#+0
        BNE.N    ??lcd_implementation_init_1
??lcd_implementation_init_0:
        MOVS     R0,#+0
        STRB     R0,[R5, #+0]
        POP      {R0-R2,R4-R9,PC}  ;; return
          CFI EndBlock cfiBlock7

        SECTION `.text`:CODE:NOROOT(2)
        SECTION_TYPE SHT_PROGBITS, 0
        DATA
??DataTable94:
        DC8      " ",0x0,0x0

        SECTION `.text`:CODE:NOROOT(2)
        SECTION_TYPE SHT_PROGBITS, 0
        DATA
// static __absolute unsigned char const start_bmp[1024]
start_bmp:
        DC8 0, 0, 0, 0, 0, 0, 0, 0, 0, 0, 0, 0, 0, 0, 0, 0, 0, 0, 0, 0, 0, 0, 0
        DC8 0, 0, 0, 0, 0, 0, 0, 0, 0, 0, 0, 0, 0, 0, 0, 0, 0, 0, 0, 0, 0, 0, 0
        DC8 0, 0, 0, 0, 0, 0, 0, 0, 0, 0, 0, 0, 0, 0, 0, 0, 0, 0, 0, 0, 0, 0, 0
        DC8 0, 0, 0, 0, 0, 0, 0, 0, 0, 0, 0, 0, 0, 0, 0, 0, 0, 0, 0, 0, 192, 0
        DC8 0, 0, 0, 0, 0, 0, 0, 0, 0, 0, 0, 0, 24, 1, 192, 0, 0, 0, 0, 0, 0, 0
        DC8 0, 0, 0, 0, 0, 0, 96, 1, 224, 0, 0, 0, 0, 0, 0, 0, 0, 0, 0, 0, 0, 0
        DC8 192, 3, 240, 0, 0, 0, 0, 0, 0, 0, 0, 0, 0, 0, 0, 1, 128, 7, 112, 0
        DC8 0, 0, 0, 0, 0, 0, 0, 0, 0, 0, 0, 3, 0, 7, 56, 0, 0, 0, 0, 0, 0, 0
        DC8 0, 0, 0, 0, 0, 6, 7, 238, 56, 0, 0, 0, 0, 0, 0, 0, 0, 0, 0, 0, 0
        DC8 14, 31, 206, 156, 0, 0, 0, 0, 0, 0, 0, 0, 0, 0, 0, 0, 28, 127, 156
        DC8 204, 0, 0, 0, 0, 0, 0, 0, 0, 0, 0, 0, 0, 56, 255, 185, 206, 0, 0, 0
        DC8 0, 0, 0, 0, 0, 0, 0, 0, 0, 113, 255, 59, 231, 0, 0, 0, 0, 0, 0, 0
        DC8 0, 0, 0, 0, 0, 227, 255, 115, 243, 0, 0, 0, 0, 0, 0, 0, 0, 0, 0, 0
        DC8 1, 199, 254, 119, 243, 128, 0, 0, 0, 0, 0, 0, 0, 0, 0, 0, 3, 128, 0
        DC8 231, 249, 128, 0, 0, 0, 0, 0, 0, 0, 0, 0, 0, 7, 255, 255, 239, 249
        DC8 192, 0, 0, 0, 0, 0, 0, 0, 0, 0, 0, 31, 255, 255, 231, 248, 192, 0
        DC8 0, 0, 0, 0, 0, 0, 0, 0, 0, 31, 255, 0, 119, 248, 96, 0, 0, 0, 0, 0
        DC8 0, 0, 0, 0, 0, 31, 128, 63, 115, 248, 96, 0, 0, 0, 0, 0, 0, 0, 0, 0
        DC8 0, 0, 15, 255, 59, 248, 48, 0, 0, 0, 0, 0, 0, 0, 0, 0, 0, 0, 15
        DC8 255, 185, 248, 24, 0, 0, 0, 0, 0, 0, 0, 0, 0, 0, 0, 15, 255, 157
        DC8 248, 24, 0, 0, 0, 0, 0, 0, 0, 0, 0, 0, 0, 7, 255, 206, 248, 48, 0
        DC8 0, 0, 0, 0, 0, 0, 0, 0, 0, 0, 7, 255, 238, 120, 48, 0, 0, 0, 0, 0
        DC8 0, 0, 0, 0, 0, 0, 3, 255, 231, 120, 32, 0, 0, 0, 0, 0, 0, 0, 0, 0
        DC8 0, 0, 3, 255, 247, 48, 96, 0, 0, 0, 0, 0, 0, 0, 0, 0, 0, 0, 1, 255
        DC8 243, 144, 64, 0, 0, 0, 0, 0, 0, 0, 0, 0, 0, 0, 1, 255, 251, 192
        DC8 128, 0, 0, 0, 0, 0, 0, 0, 0, 0, 0, 0, 0, 255, 249, 192, 0, 0, 0, 0
        DC8 0, 0, 0, 0, 0, 0, 0, 0, 0, 127, 253, 224, 0, 0, 0, 0, 0, 0, 0, 0, 0
        DC8 0, 0, 0, 32, 63, 252, 224, 0, 0, 0, 0, 0, 0, 0, 0, 0, 0, 0, 0, 16
        DC8 15, 252, 240, 0, 0, 0, 0, 0, 0, 0, 0, 0, 0, 0, 0, 8, 0, 0, 112, 0
        DC8 0, 0, 0, 0, 0, 0, 0, 0, 0, 0, 0, 12, 0, 1, 248, 0, 0, 0, 0, 0, 0, 0
        DC8 0, 0, 0, 0, 0, 6, 7, 255, 248, 0, 0, 0, 0, 0, 0, 0, 0, 0, 0, 0, 0
        DC8 3, 255, 255, 192, 0, 0, 0, 0, 0, 0, 0, 0, 0, 0, 0, 0, 3, 255, 128
        DC8 0, 0, 0, 0, 0, 0, 0, 0, 0, 0, 0, 0, 0, 0, 0, 0, 0, 0, 0, 224, 0, 0
        DC8 0, 0, 0, 0, 0, 0, 0, 0, 0, 0, 0, 0, 1, 16, 0, 0, 0, 0, 0, 0, 0, 0
        DC8 0, 0, 0, 0, 0, 0, 2, 200, 0, 0, 0, 0, 0, 0, 0, 0, 0, 0, 0, 0, 0, 0
        DC8 2, 168, 0, 0, 0, 0, 0, 0, 0, 0, 0, 0, 0, 0, 0, 0, 2, 200, 0, 0, 0
        DC8 0, 0, 0, 0, 0, 0, 0, 0, 0, 0, 0, 2, 168, 0, 0, 0, 0, 0, 0, 1, 248
        DC8 0, 0, 125, 0, 0, 0, 17, 16, 0, 0, 0, 0, 0, 0, 1, 0, 0, 0, 17, 0, 0
        DC8 0, 16, 224, 0, 0, 0, 0, 0, 0, 1, 1, 195, 145, 17, 101, 142, 56, 208
        DC8 0, 0, 0, 0, 0, 0, 0, 1, 240, 36, 17, 17, 150, 81, 69, 48, 0, 0, 0
        DC8 0, 0, 0, 0, 1, 1, 227, 143, 17, 20, 31, 125, 16, 0, 0, 0, 0, 0, 0
        DC8 0, 1, 2, 32, 65, 17, 20, 16, 65, 16, 0, 0, 0, 0, 0, 0, 0, 1, 249
        DC8 247, 142, 17, 20, 14, 56, 240, 0, 0, 0, 0, 0, 0, 0, 0, 0, 0, 0, 0
        DC8 0, 0, 0, 0, 0, 0, 0, 0, 0, 0, 0, 0, 0, 0, 0, 0, 0, 0, 0, 0, 0, 0, 0
        DC8 0, 0, 0, 0, 0, 0, 0, 0, 0, 0, 0, 0, 0, 0, 0, 0, 0, 0, 0, 0, 0, 0, 0
        DC8 0, 0, 0, 0, 0, 0, 0, 0, 0, 0, 0, 0, 0, 0, 0, 0, 0, 0, 0, 0, 0, 0, 0
        DC8 0, 0, 0, 0, 0, 0, 0, 0, 0, 0, 0, 0, 0, 0, 0, 0, 0, 0, 0, 0, 0, 0, 0
        DC8 0, 0, 0, 0, 0, 0, 0, 0, 0, 0, 0, 0, 0, 0, 0, 0, 0, 0, 0, 0, 0, 0, 0
        DC8 0, 0, 0, 0, 0, 0, 0, 0, 0, 0, 0, 0, 0, 0, 0, 0, 0, 0, 0, 0, 0, 0, 0
        DC8 0, 0, 0, 0, 0, 0, 0, 0, 0, 0, 0, 0, 0, 0

        SECTION `.text`:CODE:NOROOT(1)
          CFI Block cfiBlock8 Using cfiCommon0
          CFI Function _Z15lcd_kill_screenv
        THUMB
// __interwork __softfp void lcd_kill_screen()
_Z15lcd_kill_screenv:
        PUSH     {R4,LR}
          CFI R14 Frame(CFA, -4)
          CFI R4 Frame(CFA, -8)
          CFI CFA R13+8
        MOVS     R0,#+4
          CFI FunCall _ZN34_INTERNAL_12_ultralcd_cpp_6629db9211lcd_setFontEc
        BL       _ZN34_INTERNAL_12_ultralcd_cpp_6629db9211lcd_setFontEc
        LDR.W    R4,??DataTable101
        MOV      R0,R4
          CFI FunCall _ZN6U8GLIB9getHeightEv
        BL       _ZN6U8GLIB9getHeightEv
        MOV      R2,R0
        LSRS     R2,R2,#+2
        MOVS     R1,#+0
        MOV      R0,R4
          CFI FunCall _ZN6U8GLIB11setPrintPosEhh
        BL       _ZN6U8GLIB11setPrintPosEhh
        LDR.W    R0,??DataTable115
          CFI FunCall _Z9lcd_printPKc
        BL       _Z9lcd_printPKc
        MOV      R0,R4
          CFI FunCall _ZN6U8GLIB9getHeightEv
        BL       _ZN6U8GLIB9getHeightEv
        MOV      R2,R0
        LSRS     R2,R2,#+2
        LSLS     R2,R2,#+1
        MOVS     R1,#+0
        MOV      R0,R4
          CFI FunCall _ZN6U8GLIB11setPrintPosEhh
        BL       _ZN6U8GLIB11setPrintPosEhh
        LDR.W    R0,??DataTable116_2
          CFI FunCall _Z12lcd_printPGMPKc
        BL       _Z12lcd_printPGMPKc
        MOV      R0,R4
          CFI FunCall _ZN6U8GLIB9getHeightEv
        BL       _ZN6U8GLIB9getHeightEv
        LSRS     R0,R0,#+2
        ADD      R0,R0,R0, LSL #+1
        MOV      R2,R0
        UXTB     R2,R2
        MOVS     R1,#+0
        MOV      R0,R4
          CFI FunCall _ZN6U8GLIB11setPrintPosEhh
        BL       _ZN6U8GLIB11setPrintPosEhh
        LDR.W    R0,??DataTable117_1
        POP      {R4,LR}
          CFI R4 SameValue
          CFI R14 SameValue
          CFI CFA R13+0
          CFI FunCall _Z12lcd_printPGMPKc
        B.N      _Z12lcd_printPGMPKc
          CFI EndBlock cfiBlock8

        SECTION `.text`:CODE:NOROOT(1)
          CFI Block cfiBlock9 Using cfiCommon0
          CFI Function _Z24lcd_implementation_clearv
          CFI NoCalls
        THUMB
// __interwork __softfp void lcd_implementation_clear()
_Z24lcd_implementation_clearv:
        BX       LR               ;; return
          CFI EndBlock cfiBlock9

        SECTION `.text`:CODE:NOROOT(1)
          CFI Block cfiBlock10 Using cfiCommon0
          CFI Function _ZN34_INTERNAL_12_ultralcd_cpp_6629db9232lcd_implementation_status_screenEv
        THUMB
// static __interwork __softfp void lcd_implementation_status_screen()
_ZN34_INTERNAL_12_ultralcd_cpp_6629db9232lcd_implementation_status_screenEv:
        PUSH     {R4-R7,LR}
          CFI R14 Frame(CFA, -4)
          CFI R7 Frame(CFA, -8)
          CFI R6 Frame(CFA, -12)
          CFI R5 Frame(CFA, -16)
          CFI R4 Frame(CFA, -20)
          CFI CFA R13+20
        SUB      SP,SP,#+20
          CFI CFA R13+40
          CFI FunCall _Z9lcd_blinkv
        BL       _Z9lcd_blinkv
        MOV      R4,R0
        MOVS     R0,#+1
          CFI FunCall _ZN34_INTERNAL_12_ultralcd_cpp_6629db9211lcd_setFontEc
        BL       _ZN34_INTERNAL_12_ultralcd_cpp_6629db9211lcd_setFontEc
        LDR.W    R5,??DataTable117_2
        ADD      R6,R5,#+708
        MOV      R0,R6
          CFI FunCall _ZN6U8GLIB6getU8gEv
        BL       _ZN6U8GLIB6getU8gEv
        LDRB     R0,[R0, #+73]
        CMP      R0,#+20
        BGT.N    ??lcd_implementation_status_screen_0
        MOVS     R0,R4
        BEQ.N    ??lcd_implementation_status_screen_1
        LDR.W    R0,??DataTable116_3
        LDR      R0,[R0, #+0]
        CMP      R0,#+0
        BEQ.N    ??lcd_implementation_status_screen_1
        ADD      R0,R5,#+132
        B.N      ??lcd_implementation_status_screen_2
??lcd_implementation_status_screen_1:
        ADD      R0,R5,#+420
??lcd_implementation_status_screen_2:
        STR      R0,[SP, #+4]
        MOVS     R0,#+19
        STR      R0,[SP, #+0]
        MOVS     R3,#+15
        MOVS     R2,#+1
        MOVS     R1,#+9
        MOV      R0,R6
          CFI FunCall _ZN6U8GLIB11drawBitmapPEhhhhPKh
        BL       _ZN6U8GLIB11drawBitmapPEhhhhPKh
??lcd_implementation_status_screen_0:
        MOV      R0,R6
          CFI FunCall _ZN6U8GLIB6getU8gEv
        BL       _ZN6U8GLIB6getU8gEv
        LDRB     R0,[R0, #+73]
        CMP      R0,#+28
        BGT.N    ??lcd_implementation_status_screen_3
        MOVS     R7,#+0
        B.N      ??lcd_implementation_status_screen_4
??lcd_implementation_status_screen_5:
        MOV      R1,R7
        SXTB     R1,R1
        MOVS     R2,#+25
        MULS     R0,R2,R0
        ADDS     R0,R0,#+5
        UXTB     R0,R0
          CFI FunCall _Z19_draw_heater_statusha
        BL       _Z19_draw_heater_statusha
        ADDS     R7,R7,#+1
??lcd_implementation_status_screen_4:
        MOV      R0,R7
        SXTB     R0,R0
        CMP      R0,#+0
        BLE.N    ??lcd_implementation_status_screen_5
        LDR.W    R0,??DataTable117_3
        LDRB     R0,[R0, #+54]
        CMP      R0,#+0
        BEQ.N    ??lcd_implementation_status_screen_6
        MOV      R1,#-1
        MOVS     R0,#+81
          CFI FunCall _Z19_draw_heater_statusha
        BL       _Z19_draw_heater_statusha
??lcd_implementation_status_screen_6:
        MOV      R0,R6
          CFI FunCall _ZN6U8GLIB6getU8gEv
        BL       _ZN6U8GLIB6getU8gEv
        LDRB     R0,[R0, #+73]
        CMP      R0,#+28
        BGE.N    ??lcd_implementation_status_screen_3
        MOV      R0,R6
          CFI FunCall _ZN6U8GLIB6getU8gEv
        BL       _ZN6U8GLIB6getU8gEv
        LDRB     R0,[R0, #+75]
        CMP      R0,#+20
        BLT.N    ??lcd_implementation_status_screen_3
        LDR.W    R0,??DataTable116_3
        LDR      R1,[R0, #+0]
        ADDS     R1,R1,#+1
        MOVS     R0,#+100
        MULS     R1,R0,R1
        MOV      R0,R1
        ASRS     R0,R0,#+7
        ADD      R1,R1,R0, LSR #+24
        ASRS     R1,R1,#+8
        STR      R1,[SP, #+0]
        BEQ.N    ??lcd_implementation_status_screen_3
        MOVS     R2,#+27
        MOVS     R1,#+104
        MOV      R0,R6
          CFI FunCall _ZN6U8GLIB11setPrintPosEhh
        BL       _ZN6U8GLIB11setPrintPosEhh
        MOV      R0,SP
          CFI FunCall _Z7itostr3RKi
        BL       _Z7itostr3RKi
          CFI FunCall _Z9lcd_printPKc
        BL       _Z9lcd_printPKc
        MOVS     R1,#+37
        MOV      R0,R6
          CFI FunCall _ZN5Print5printEc
        BL       _ZN5Print5printEc
??lcd_implementation_status_screen_3:
        MOV      R0,R6
          CFI FunCall _ZN6U8GLIB6getU8gEv
        BL       _ZN6U8GLIB6getU8gEv
        LDRB     R0,[R0, #+73]
        CMP      R0,#+50
        BGT.N    ??lcd_implementation_status_screen_7
        MOV      R0,R6
          CFI FunCall _ZN6U8GLIB6getU8gEv
        BL       _ZN6U8GLIB6getU8gEv
        LDRB     R0,[R0, #+75]
        CMP      R0,#+40
        BLE.N    ??lcd_implementation_status_screen_7
        MOVS     R0,#+7
        STR      R0,[SP, #+0]
        MOVS     R3,#+8
        MOVS     R2,#+41
        MOVS     R1,#+42
        MOV      R0,R6
          CFI FunCall _ZN6U8GLIB7drawBoxEhhhh
        BL       _ZN6U8GLIB7drawBoxEhhhh
        MOVS     R0,#+5
        STR      R0,[SP, #+0]
        MOVS     R3,#+2
        MOVS     R2,#+43
        MOVS     R1,#+50
        MOV      R0,R6
          CFI FunCall _ZN6U8GLIB7drawBoxEhhhh
        BL       _ZN6U8GLIB7drawBoxEhhhh
        MOVS     R0,#+4
        STR      R0,[SP, #+0]
        MOVS     R3,#+10
        MOVS     R2,#+48
        MOVS     R1,#+42
        MOV      R0,R6
          CFI FunCall _ZN6U8GLIB9drawFrameEhhhh
        BL       _ZN6U8GLIB9drawFrameEhhhh
        MOVS     R2,#+42
        MOVS     R1,#+50
        MOV      R0,R6
          CFI FunCall _ZN6U8GLIB9drawPixelEhh
        BL       _ZN6U8GLIB9drawPixelEhh
??lcd_implementation_status_screen_7:
        MOV      R0,R6
          CFI FunCall _ZN6U8GLIB6getU8gEv
        BL       _ZN6U8GLIB6getU8gEv
        LDRB     R0,[R0, #+73]
        CMP      R0,#+51
        BGT.N    ??lcd_implementation_status_screen_8
        MOV      R0,R6
          CFI FunCall _ZN6U8GLIB6getU8gEv
        BL       _ZN6U8GLIB6getU8gEv
        LDRB     R0,[R0, #+75]
        CMP      R0,#+49
        BLT.N    ??lcd_implementation_status_screen_8
        MOVS     R0,#+3
        STR      R0,[SP, #+0]
        MOVS     R3,#+74
        MOVS     R2,#+49
        MOVS     R1,#+54
        MOV      R0,R6
          CFI FunCall _ZN6U8GLIB9drawFrameEhhhh
        BL       _ZN6U8GLIB9drawFrameEhhhh
??lcd_implementation_status_screen_8:
        LDR.W    R7,??DataTable117_4
        LDRB     R0,[R7, #+2]
        CMP      R0,#+0
        BEQ.N    ??lcd_implementation_status_screen_9
        MOV      R0,R6
          CFI FunCall _ZN6U8GLIB6getU8gEv
        BL       _ZN6U8GLIB6getU8gEv
        LDRB     R0,[R0, #+73]
        CMP      R0,#+50
        BGT.N    ??lcd_implementation_status_screen_9
        MOV      R0,R6
          CFI FunCall _ZN6U8GLIB6getU8gEv
        BL       _ZN6U8GLIB6getU8gEv
        LDRB     R0,[R0, #+75]
        CMP      R0,#+49
        BLE.N    ??lcd_implementation_status_screen_9
        MOV      R0,R7
          CFI FunCall _ZN10CardReader11percentDoneEv
        BL       _ZN10CardReader11percentDoneEv
        MOVS     R1,#+1
        STR      R1,[SP, #+0]
        ADD      R1,R0,R0, LSL #+3
        LSLS     R0,R1,#+3
          CFI FunCall __aeabi_i2d
        BL       __aeabi_i2d
        LDR.W    R2,??DataTable117_5  ;; 0x47ae147b
        LDR.W    R3,??DataTable117_6  ;; 0x3f847ae1
          CFI FunCall __aeabi_dmul
        BL       __aeabi_dmul
          CFI FunCall __aeabi_d2uiz
        BL       __aeabi_d2uiz
        MOV      R3,R0
        UXTB     R3,R3
        MOVS     R2,#+50
        MOVS     R1,#+55
        MOV      R0,R6
          CFI FunCall _ZN6U8GLIB7drawBoxEhhhh
        BL       _ZN6U8GLIB7drawBoxEhhhh
??lcd_implementation_status_screen_9:
        MOV      R0,R6
          CFI FunCall _ZN6U8GLIB6getU8gEv
        BL       _ZN6U8GLIB6getU8gEv
        LDRB     R0,[R0, #+73]
        CMP      R0,#+49
        BGE.N    ??lcd_implementation_status_screen_10
        MOV      R0,R6
          CFI FunCall _ZN6U8GLIB6getU8gEv
        BL       _ZN6U8GLIB6getU8gEv
        LDRB     R0,[R0, #+75]
        CMP      R0,#+40
        BLE.N    ??lcd_implementation_status_screen_10
        LDR.W    R0,??DataTable117_7
          CFI FunCall _ZN9Stopwatch8durationEv
        BL       _ZN9Stopwatch8durationEv
        STR      R0,[SP, #+4]
        ADD      R1,SP,#+4
        MOV      R0,SP
          CFI FunCall _ZN10duration_tC1ERKj
        BL       _ZN10duration_tC1ERKj
        LDR      R0,[SP, #+0]
        LDR.W    R1,??DataTable117_8  ;; 0x15181
        CMP      R0,R1
        SBCS     R2,R2,R2
        MVNS     R2,R2
        LSRS     R2,R2,#+31
        ADD      R1,SP,#+8
        MOV      R0,SP
          CFI FunCall _ZNK10duration_t9toDigitalEPcb
        BL       _ZNK10duration_t9toDigitalEPcb
        MOVS     R2,#+48
        ADD      R0,R0,R0, LSL #+1
        RSB      R0,R0,#+91
        MOV      R1,R0
        UXTB     R1,R1
        MOV      R0,R6
          CFI FunCall _ZN6U8GLIB11setPrintPosEhh
        BL       _ZN6U8GLIB11setPrintPosEhh
        ADD      R0,SP,#+8
          CFI FunCall _Z9lcd_printPKc
        BL       _Z9lcd_printPKc
??lcd_implementation_status_screen_10:
        LDR      R0,[R5, #+60]
        LDRB     R0,[R0, #+4]
        CMP      R0,#+0
        BNE.N    ??lcd_implementation_status_screen_11
        LDR.W    R7,??DataTable117_9
        MOV      R0,R7
          CFI FunCall _Z11ftostr4signRKf
        BL       _Z11ftostr4signRKf
        MOV      R1,R0
        ADD      R0,R5,#+796
          CFI FunCall strcpy
        BL       strcpy
        ADDS     R0,R7,#+4
          CFI FunCall _Z11ftostr4signRKf
        BL       _Z11ftostr4signRKf
        MOV      R1,R0
        ADD      R0,R5,#+804
          CFI FunCall strcpy
        BL       strcpy
        LDR      R0,[R7, #+8]
          CFI FunCall __aeabi_f2d
        BL       __aeabi_f2d
        LDR.W    R2,??DataTable117_10  ;; 0x88e368f1
        LDR.W    R3,??DataTable117_11  ;; 0x3ee4f8b5
          CFI FunCall __aeabi_dadd
        BL       __aeabi_dadd
          CFI FunCall __aeabi_d2f
        BL       __aeabi_d2f
        STR      R0,[SP, #+0]
        MOV      R0,SP
          CFI FunCall _Z10ftostr52spRKf
        BL       _Z10ftostr52spRKf
        MOV      R1,R0
        ADD      R0,R5,#+812
          CFI FunCall strcpy
        BL       strcpy
??lcd_implementation_status_screen_11:
        MOV      R0,R6
          CFI FunCall _ZN6U8GLIB6getU8gEv
        BL       _ZN6U8GLIB6getU8gEv
        LDRB     R0,[R0, #+73]
        CMP      R0,#+39
        BGT.N    ??lcd_implementation_status_screen_12
        MOV      R0,R6
          CFI FunCall _ZN6U8GLIB6getU8gEv
        BL       _ZN6U8GLIB6getU8gEv
        LDRB     R0,[R0, #+75]
        CMP      R0,#+28
        BLE.N    ??lcd_implementation_status_screen_12
        MOVS     R0,#+11
        STR      R0,[SP, #+0]
        MOVS     R3,#+128
        MOVS     R2,#+29
        MOVS     R1,#+0
        MOV      R0,R6
          CFI FunCall _ZN6U8GLIB9drawFrameEhhhh
        BL       _ZN6U8GLIB9drawFrameEhhhh
        MOV      R0,R6
          CFI FunCall _ZN6U8GLIB6getU8gEv
        BL       _ZN6U8GLIB6getU8gEv
        LDRB     R0,[R0, #+73]
        CMP      R0,#+39
        BGE.N    ??lcd_implementation_status_screen_12
        MOV      R0,R6
          CFI FunCall _ZN6U8GLIB6getU8gEv
        BL       _ZN6U8GLIB6getU8gEv
        LDRB     R0,[R0, #+75]
        CMP      R0,#+31
        BLT.N    ??lcd_implementation_status_screen_12
        MOVS     R2,#+38
        MOVS     R1,#+3
        MOV      R0,R6
          CFI FunCall _ZN6U8GLIB11setPrintPosEhh
        BL       _ZN6U8GLIB11setPrintPosEhh
        MOV      R2,R4
        ADR.N    R1,??DataTable100  ;; "X"
        MOVS     R0,#+0
          CFI FunCall _Z16_draw_axis_label8AxisEnumPKcb
        BL       _Z16_draw_axis_label8AxisEnumPKcb
        MOVS     R2,#+38
        MOVS     R1,#+11
        MOV      R0,R6
          CFI FunCall _ZN6U8GLIB11setPrintPosEhh
        BL       _ZN6U8GLIB11setPrintPosEhh
        ADD      R0,R5,#+796
          CFI FunCall _Z9lcd_printPKc
        BL       _Z9lcd_printPKc
        MOVS     R2,#+38
        MOVS     R1,#+43
        MOV      R0,R6
          CFI FunCall _ZN6U8GLIB11setPrintPosEhh
        BL       _ZN6U8GLIB11setPrintPosEhh
        MOV      R2,R4
        ADR.N    R1,??DataTable100_1  ;; "Y"
        MOVS     R0,#+1
          CFI FunCall _Z16_draw_axis_label8AxisEnumPKcb
        BL       _Z16_draw_axis_label8AxisEnumPKcb
        MOVS     R2,#+38
        MOVS     R1,#+51
        MOV      R0,R6
          CFI FunCall _ZN6U8GLIB11setPrintPosEhh
        BL       _ZN6U8GLIB11setPrintPosEhh
        ADD      R0,R5,#+804
          CFI FunCall _Z9lcd_printPKc
        BL       _Z9lcd_printPKc
        MOVS     R2,#+38
        MOVS     R1,#+83
        MOV      R0,R6
          CFI FunCall _ZN6U8GLIB11setPrintPosEhh
        BL       _ZN6U8GLIB11setPrintPosEhh
        MOV      R2,R4
        ADR.N    R1,??DataTable100_2  ;; "Z"
        MOVS     R0,#+2
          CFI FunCall _Z16_draw_axis_label8AxisEnumPKcb
        BL       _Z16_draw_axis_label8AxisEnumPKcb
        MOVS     R2,#+38
        MOVS     R1,#+91
        MOV      R0,R6
          CFI FunCall _ZN6U8GLIB11setPrintPosEhh
        BL       _ZN6U8GLIB11setPrintPosEhh
        ADD      R0,R5,#+812
          CFI FunCall _Z9lcd_printPKc
        BL       _Z9lcd_printPKc
??lcd_implementation_status_screen_12:
        MOV      R0,R6
          CFI FunCall _ZN6U8GLIB6getU8gEv
        BL       _ZN6U8GLIB6getU8gEv
        LDRB     R0,[R0, #+73]
        CMP      R0,#+49
        BGT.N    ??lcd_implementation_status_screen_13
        MOV      R0,R6
          CFI FunCall _ZN6U8GLIB6getU8gEv
        BL       _ZN6U8GLIB6getU8gEv
        LDRB     R0,[R0, #+75]
        CMP      R0,#+43
        BLT.N    ??lcd_implementation_status_screen_13
        MOVS     R0,#+4
          CFI FunCall _ZN34_INTERNAL_12_ultralcd_cpp_6629db9211lcd_setFontEc
        BL       _ZN34_INTERNAL_12_ultralcd_cpp_6629db9211lcd_setFontEc
        MOVS     R2,#+50
        MOVS     R1,#+3
        MOV      R0,R6
          CFI FunCall _ZN6U8GLIB11setPrintPosEhh
        BL       _ZN6U8GLIB11setPrintPosEhh
        MOVS     R0,#+6
          CFI FunCall _Z9lcd_printc
        BL       _Z9lcd_printc
        MOVS     R0,#+1
          CFI FunCall _ZN34_INTERNAL_12_ultralcd_cpp_6629db9211lcd_setFontEc
        BL       _ZN34_INTERNAL_12_ultralcd_cpp_6629db9211lcd_setFontEc
        MOVS     R2,#+50
        MOVS     R1,#+12
        MOV      R0,R6
          CFI FunCall _ZN6U8GLIB11setPrintPosEhh
        BL       _ZN6U8GLIB11setPrintPosEhh
        LDR.W    R0,??DataTable119
          CFI FunCall _Z7itostr3RKi
        BL       _Z7itostr3RKi
          CFI FunCall _Z9lcd_printPKc
        BL       _Z9lcd_printPKc
        MOVS     R1,#+37
        MOV      R0,R6
          CFI FunCall _ZN5Print5printEc
        BL       _ZN5Print5printEc
??lcd_implementation_status_screen_13:
        MOVS     R2,#+63
        MOVS     R1,#+0
        MOV      R0,R6
          CFI FunCall _ZN6U8GLIB11setPrintPosEhh
        BL       _ZN6U8GLIB11setPrintPosEhh
        LDR.W    R0,??DataTable115
          CFI FunCall _Z9lcd_printPKc
        BL       _Z9lcd_printPKc
        ADD      SP,SP,#+20
          CFI CFA R13+20
        POP      {R4-R7,PC}       ;; return
          CFI EndBlock cfiBlock10

        SECTION `.text`:CODE:NOROOT(1)
          CFI Block cfiBlock11 Using cfiCommon0
          CFI Function _ZN34_INTERNAL_12_ultralcd_cpp_6629db9232lcd_implementation_hotend_statusEh
        THUMB
// static __interwork __softfp void lcd_implementation_hotend_status(uint8_t)
_ZN34_INTERNAL_12_ultralcd_cpp_6629db9232lcd_implementation_hotend_statusEh:
        PUSH     {R2-R6,LR}
          CFI R14 Frame(CFA, -4)
          CFI R6 Frame(CFA, -8)
          CFI R5 Frame(CFA, -12)
          CFI R4 Frame(CFA, -16)
          CFI CFA R13+24
        LDR.W    R1,??DataTable117_2
        RSB      R2,R0,R0, LSL #+3
        LSLS     R0,R2,#+1
        ADDS     R0,R0,#+1
        STRB     R0,[R1, #+0]
        LDRB     R4,[R1, #+0]
        ADD      R5,R4,#+13
        STRB     R5,[R1, #+1]
        ADD      R6,R1,#+708
        MOV      R0,R6
          CFI FunCall _ZN6U8GLIB6getU8gEv
        BL       _ZN6U8GLIB6getU8gEv
        MOV      R1,R5
        UXTB     R1,R1
        ADDS     R1,R1,#+2
        LDRB     R0,[R0, #+73]
        CMP      R1,R0
        BLT.N    ??lcd_implementation_hotend_status_0
        MOV      R0,R6
          CFI FunCall _ZN6U8GLIB6getU8gEv
        BL       _ZN6U8GLIB6getU8gEv
        LDRB     R0,[R0, #+75]
        ADDS     R4,R4,#+1
        CMP      R0,R4
        BLT.N    ??lcd_implementation_hotend_status_0
        MOV      R2,R5
        UXTB     R2,R2
        MOVS     R1,#+62
        MOV      R0,R6
          CFI FunCall _ZN6U8GLIB11setPrintPosEhh
        BL       _ZN6U8GLIB11setPrintPosEhh
        MOVS     R0,#+69
          CFI FunCall _Z9lcd_printc
        BL       _Z9lcd_printc
        LDR.W    R4,??DataTable121
        LDRSB    R0,[R4, #+0]
        ADDS     R0,R0,#+49
        SXTB     R0,R0
          CFI FunCall _Z9lcd_printc
        BL       _Z9lcd_printc
        MOVS     R0,#+32
          CFI FunCall _Z9lcd_printc
        BL       _Z9lcd_printc
        LDRB     R0,[R4, #+0]
          CFI FunCall _ZN11Temperature9degHotendEh
        BL       _ZN11Temperature9degHotendEh
          CFI FunCall __aeabi_f2iz
        BL       __aeabi_f2iz
        STR      R0,[SP, #+0]
        MOV      R0,SP
          CFI FunCall _Z7itostr3RKi
        BL       _Z7itostr3RKi
          CFI FunCall _Z9lcd_printPKc
        BL       _Z9lcd_printPKc
        MOVS     R0,#+47
          CFI FunCall _Z9lcd_printc
        BL       _Z9lcd_printc
        LDRB     R0,[R4, #+0]
          CFI FunCall _ZN11Temperature15degTargetHotendEh
        BL       _ZN11Temperature15degTargetHotendEh
          CFI FunCall __aeabi_f2iz
        BL       __aeabi_f2iz
        STR      R0,[SP, #+0]
        MOV      R0,SP
          CFI FunCall _Z7itostr3RKi
        BL       _Z7itostr3RKi
          CFI FunCall _Z9lcd_printPKc
        BL       _Z9lcd_printPKc
??lcd_implementation_hotend_status_0:
        POP      {R0,R1,R4-R6,PC}  ;; return
          CFI EndBlock cfiBlock11

        SECTION `.text`:CODE:NOROOT(1)
          CFI Block cfiBlock12 Using cfiCommon0
          CFI Function _ZN34_INTERNAL_12_ultralcd_cpp_6629db9235lcd_implementation_mark_as_selectedEhb
        THUMB
// static __interwork __softfp void lcd_implementation_mark_as_selected(uint8_t, bool)
_ZN34_INTERNAL_12_ultralcd_cpp_6629db9235lcd_implementation_mark_as_selectedEhb:
        PUSH     {R4-R8,LR}
          CFI R14 Frame(CFA, -4)
          CFI R8 Frame(CFA, -8)
          CFI R7 Frame(CFA, -12)
          CFI R6 Frame(CFA, -16)
          CFI R5 Frame(CFA, -20)
          CFI R4 Frame(CFA, -24)
          CFI CFA R13+24
        MOV      R4,R1
        LDR.W    R5,??DataTable117_2
        RSB      R1,R0,R0, LSL #+3
        LSLS     R0,R1,#+1
        ADDS     R0,R0,#+1
        STRB     R0,[R5, #+0]
        LDRB     R6,[R5, #+0]
        ADD      R8,R6,#+13
        STRB     R8,[R5, #+1]
        ADD      R7,R5,#+708
        MOV      R0,R7
          CFI FunCall _ZN6U8GLIB6getU8gEv
        BL       _ZN6U8GLIB6getU8gEv
        UXTB     R8,R8
        ADD      R8,R8,#+2
        LDRB     R0,[R0, #+73]
        CMP      R8,R0
        BLT.N    ??lcd_implementation_mark_as_selected_0
        MOV      R0,R7
          CFI FunCall _ZN6U8GLIB6getU8gEv
        BL       _ZN6U8GLIB6getU8gEv
        LDRB     R0,[R0, #+75]
        MOV      R1,R6
        ADDS     R1,R1,#+1
        CMP      R0,R1
        BLT.N    ??lcd_implementation_mark_as_selected_0
        CMP      R4,#+0
        BEQ.N    ??lcd_implementation_mark_as_selected_1
        MOVS     R3,#+128
        ADDS     R6,R6,#+1
        MOV      R2,R6
        UXTB     R2,R2
        MOVS     R1,#+0
        MOV      R0,R7
          CFI FunCall _ZN6U8GLIB9drawHLineEhhh
        BL       _ZN6U8GLIB9drawHLineEhhh
        MOVS     R3,#+128
        LDRB     R2,[R5, #+1]
        ADDS     R2,R2,#+2
        UXTB     R2,R2
        MOVS     R1,#+0
        MOV      R0,R7
          CFI FunCall _ZN6U8GLIB9drawHLineEhhh
        BL       _ZN6U8GLIB9drawHLineEhhh
??lcd_implementation_mark_as_selected_1:
        LDRB     R2,[R5, #+1]
        MOVS     R1,#+0
        MOV      R0,R7
        POP      {R4-R8,LR}
          CFI R4 SameValue
          CFI R5 SameValue
          CFI R6 SameValue
          CFI R7 SameValue
          CFI R8 SameValue
          CFI R14 SameValue
          CFI CFA R13+0
          CFI FunCall _ZN6U8GLIB11setPrintPosEhh
        B.W      _ZN6U8GLIB11setPrintPosEhh
          CFI R4 Frame(CFA, -24)
          CFI R5 Frame(CFA, -20)
          CFI R6 Frame(CFA, -16)
          CFI R7 Frame(CFA, -12)
          CFI R8 Frame(CFA, -8)
          CFI R14 Frame(CFA, -4)
          CFI CFA R13+24
??lcd_implementation_mark_as_selected_0:
        POP      {R4-R8,PC}       ;; return
          CFI EndBlock cfiBlock12

        SECTION `.text`:CODE:NOROOT(1)
          CFI Block cfiBlock13 Using cfiCommon0
          CFI Function _ZN34_INTERNAL_12_ultralcd_cpp_6629db9234lcd_implementation_drawmenu_staticEhPKcbbS1_
        THUMB
// static __interwork __softfp void lcd_implementation_drawmenu_static(uint8_t, char const *, bool, bool, char const *)
_ZN34_INTERNAL_12_ultralcd_cpp_6629db9234lcd_implementation_drawmenu_staticEhPKcbbS1_:
        PUSH     {R4-R8,LR}
          CFI R14 Frame(CFA, -4)
          CFI R8 Frame(CFA, -8)
          CFI R7 Frame(CFA, -12)
          CFI R6 Frame(CFA, -16)
          CFI R5 Frame(CFA, -20)
          CFI R4 Frame(CFA, -24)
          CFI CFA R13+24
        MOV      R5,R1
        MOV      R7,R2
        MOV      R1,R3
          CFI FunCall _ZN34_INTERNAL_12_ultralcd_cpp_6629db9235lcd_implementation_mark_as_selectedEhb
        BL       _ZN34_INTERNAL_12_ultralcd_cpp_6629db9235lcd_implementation_mark_as_selectedEhb
        LDR.W    R4,??DataTable117_2
        ADD      R6,R4,#+708
        MOV      R0,R6
          CFI FunCall _ZN6U8GLIB6getU8gEv
        BL       _ZN6U8GLIB6getU8gEv
        LDRB     R1,[R4, #+1]
        LDRB     R0,[R0, #+73]
        CMP      R1,R0
        BCC.N    ??lcd_implementation_drawmenu_static_0
        MOV      R0,R6
          CFI FunCall _ZN6U8GLIB6getU8gEv
        BL       _ZN6U8GLIB6getU8gEv
        LDRB     R0,[R0, #+75]
        LDRB     R1,[R4, #+0]
        CMP      R0,R1
        BCC.N    ??lcd_implementation_drawmenu_static_0
        MOV      R8,#+22
        LDR      R4,[SP, #+24]
        CMP      R7,#+0
        BEQ.N    ??lcd_implementation_drawmenu_static_1
        CMP      R4,#+0
        BNE.N    ??lcd_implementation_drawmenu_static_1
        MOV      R0,R5
          CFI FunCall _Z12lcd_strlen_PPKc
        BL       _Z12lcd_strlen_PPKc
        MOV      R7,R0
        RSB      R7,R7,#+22
        ADD      R7,R7,R7, LSR #+31
        ASRS     R7,R7,#+1
        B.N      ??lcd_implementation_drawmenu_static_2
??lcd_implementation_drawmenu_static_3:
        MOVS     R1,#+32
        MOV      R0,R6
          CFI FunCall _ZN5Print5printEc
        BL       _ZN5Print5printEc
        SUB      R8,R8,#+1
??lcd_implementation_drawmenu_static_2:
        SUBS     R7,R7,#+1
        MOV      R0,R7
        SXTB     R0,R0
        CMP      R0,#+0
        BPL.N    ??lcd_implementation_drawmenu_static_3
??lcd_implementation_drawmenu_static_1:
        MOV      R0,R8
        SXTB     R0,R0
        CMP      R0,#+0
        BLE.N    ??lcd_implementation_drawmenu_static_4
        LDRSB    R0,[R5, #+0]
        MOVS     R1,R0
        BEQ.N    ??lcd_implementation_drawmenu_static_4
          CFI FunCall _Z19lcd_print_and_countc
        BL       _Z19lcd_print_and_countc
        SUB      R8,R8,R0
        ADDS     R5,R5,#+1
        B.N      ??lcd_implementation_drawmenu_static_1
??lcd_implementation_drawmenu_static_5:
          CFI FunCall _Z19lcd_print_and_countc
        BL       _Z19lcd_print_and_countc
        SUB      R8,R8,R0
        ADDS     R4,R4,#+1
??lcd_implementation_drawmenu_static_6:
        MOV      R0,R8
        SXTB     R0,R0
        CMP      R0,#+0
        BLE.N    ??lcd_implementation_drawmenu_static_7
        LDRSB    R0,[R4, #+0]
        MOVS     R1,R0
        BNE.N    ??lcd_implementation_drawmenu_static_5
??lcd_implementation_drawmenu_static_7:
        MOV      R0,R8
        SUB      R8,R0,#+1
        SXTB     R0,R0
        CMP      R0,#+0
        BLE.N    ??lcd_implementation_drawmenu_static_0
        MOVS     R1,#+32
        MOV      R0,R6
          CFI FunCall _ZN5Print5printEc
        BL       _ZN5Print5printEc
        B.N      ??lcd_implementation_drawmenu_static_7
??lcd_implementation_drawmenu_static_4:
        CMP      R4,#+0
        BEQ.N    ??lcd_implementation_drawmenu_static_7
        B.N      ??lcd_implementation_drawmenu_static_6
??lcd_implementation_drawmenu_static_0:
        POP      {R4-R8,PC}       ;; return
          CFI EndBlock cfiBlock13

        SECTION `.text`:CODE:NOROOT(1)
          CFI Block cfiBlock14 Using cfiCommon0
          CFI Function _ZN34_INTERNAL_12_ultralcd_cpp_6629db9235lcd_implementation_drawmenu_genericEbhPKccc
        THUMB
// static __interwork __softfp void lcd_implementation_drawmenu_generic(bool, uint8_t, char const *, char, char)
_ZN34_INTERNAL_12_ultralcd_cpp_6629db9235lcd_implementation_drawmenu_genericEbhPKccc:
        PUSH     {R3-R7,LR}
          CFI R14 Frame(CFA, -4)
          CFI R7 Frame(CFA, -8)
          CFI R6 Frame(CFA, -12)
          CFI R5 Frame(CFA, -16)
          CFI R4 Frame(CFA, -20)
          CFI CFA R13+24
        MOV      R3,R1
        MOV      R4,R2
        MOV      R1,R0
        MOV      R0,R3
          CFI FunCall _ZN34_INTERNAL_12_ultralcd_cpp_6629db9235lcd_implementation_mark_as_selectedEhb
        BL       _ZN34_INTERNAL_12_ultralcd_cpp_6629db9235lcd_implementation_mark_as_selectedEhb
        LDR.W    R5,??DataTable117_2
        ADD      R6,R5,#+708
        MOV      R0,R6
          CFI FunCall _ZN6U8GLIB6getU8gEv
        BL       _ZN6U8GLIB6getU8gEv
        LDRB     R1,[R5, #+1]
        LDRB     R0,[R0, #+73]
        CMP      R1,R0
        BCC.N    ??lcd_implementation_drawmenu_generic_0
        MOV      R0,R6
          CFI FunCall _ZN6U8GLIB6getU8gEv
        BL       _ZN6U8GLIB6getU8gEv
        LDRB     R0,[R0, #+75]
        LDRB     R1,[R5, #+0]
        CMP      R0,R1
        BCC.N    ??lcd_implementation_drawmenu_generic_0
        MOVS     R7,#+20
        B.N      ??lcd_implementation_drawmenu_generic_1
??lcd_implementation_drawmenu_generic_2:
          CFI FunCall _Z19lcd_print_and_countc
        BL       _Z19lcd_print_and_countc
        SUBS     R7,R7,R0
        ADDS     R4,R4,#+1
??lcd_implementation_drawmenu_generic_1:
        LDRSB    R0,[R4, #+0]
        MOVS     R1,R0
        BNE.N    ??lcd_implementation_drawmenu_generic_2
??lcd_implementation_drawmenu_generic_3:
        MOV      R0,R7
        SUBS     R7,R0,#+1
        UXTB     R0,R0
        CMP      R0,#+0
        BEQ.N    ??lcd_implementation_drawmenu_generic_4
        MOVS     R1,#+32
        MOV      R0,R6
          CFI FunCall _ZN5Print5printEc
        BL       _ZN5Print5printEc
        B.N      ??lcd_implementation_drawmenu_generic_3
??lcd_implementation_drawmenu_generic_4:
        LDRSB    R4,[SP, #+24]
        LDRB     R2,[R5, #+1]
        MOVS     R1,#+122
        MOV      R0,R6
          CFI FunCall _ZN6U8GLIB11setPrintPosEhh
        BL       _ZN6U8GLIB11setPrintPosEhh
        MOV      R0,R4
          CFI FunCall _Z9lcd_printc
        BL       _Z9lcd_printc
        MOVS     R1,#+32
        MOV      R0,R6
        POP      {R2,R4-R7,LR}
          CFI R4 SameValue
          CFI R5 SameValue
          CFI R6 SameValue
          CFI R7 SameValue
          CFI R14 SameValue
          CFI CFA R13+0
          CFI FunCall _ZN5Print5printEc
        B.W      _ZN5Print5printEc
          CFI R4 Frame(CFA, -20)
          CFI R5 Frame(CFA, -16)
          CFI R6 Frame(CFA, -12)
          CFI R7 Frame(CFA, -8)
          CFI R14 Frame(CFA, -4)
          CFI CFA R13+24
??lcd_implementation_drawmenu_generic_0:
        POP      {R0,R4-R7,PC}    ;; return
          CFI EndBlock cfiBlock14

        SECTION `.text`:CODE:NOROOT(2)
        SECTION_TYPE SHT_PROGBITS, 0
        DATA
??DataTable100:
        DC8      "X",0x0,0x0

        SECTION `.text`:CODE:NOROOT(2)
        SECTION_TYPE SHT_PROGBITS, 0
        DATA
??DataTable100_1:
        DC8      "Y",0x0,0x0

        SECTION `.text`:CODE:NOROOT(2)
        SECTION_TYPE SHT_PROGBITS, 0
        DATA
??DataTable100_2:
        DC8      "Z",0x0,0x0

        SECTION `.text`:CODE:NOROOT(1)
          CFI Block cfiBlock15 Using cfiCommon0
          CFI Function _ZN34_INTERNAL_12_ultralcd_cpp_6629db9230_drawmenu_setting_edit_genericEbhPKcS1_b
        THUMB
// static __interwork __softfp void _drawmenu_setting_edit_generic(bool, uint8_t, char const *, char const *, bool)
_ZN34_INTERNAL_12_ultralcd_cpp_6629db9230_drawmenu_setting_edit_genericEbhPKcS1_b:
        PUSH     {R4-R10,LR}
          CFI R14 Frame(CFA, -4)
          CFI R10 Frame(CFA, -8)
          CFI R9 Frame(CFA, -12)
          CFI R8 Frame(CFA, -16)
          CFI R7 Frame(CFA, -20)
          CFI R6 Frame(CFA, -24)
          CFI R5 Frame(CFA, -28)
          CFI R4 Frame(CFA, -32)
          CFI CFA R13+32
        MOV      R4,R1
        MOV      R5,R2
        MOV      R6,R3
        MOV      R1,R0
        MOV      R0,R4
          CFI FunCall _ZN34_INTERNAL_12_ultralcd_cpp_6629db9235lcd_implementation_mark_as_selectedEhb
        BL       _ZN34_INTERNAL_12_ultralcd_cpp_6629db9235lcd_implementation_mark_as_selectedEhb
        LDR.W    R7,??DataTable117_2
        ADD      R8,R7,#+708
        MOV      R0,R8
          CFI FunCall _ZN6U8GLIB6getU8gEv
        BL       _ZN6U8GLIB6getU8gEv
        LDRB     R1,[R7, #+1]
        LDRB     R0,[R0, #+73]
        CMP      R1,R0
        BCC.N    ??_drawmenu_setting_edit_generic_0
        MOV      R0,R8
          CFI FunCall _ZN6U8GLIB6getU8gEv
        BL       _ZN6U8GLIB6getU8gEv
        LDRB     R0,[R0, #+75]
        LDRB     R1,[R7, #+0]
        CMP      R0,R1
        BCC.N    ??_drawmenu_setting_edit_generic_0
        LDR      R4,[SP, #+32]
        MOVS     R0,R4
        MOV      R0,R6
        BEQ.N    ??_drawmenu_setting_edit_generic_1
          CFI FunCall _Z12lcd_strlen_PPKc
        BL       _Z12lcd_strlen_PPKc
        MOV      R9,R0
        B.N      ??_drawmenu_setting_edit_generic_2
??_drawmenu_setting_edit_generic_1:
          CFI FunCall _Z10lcd_strlenPKc
        BL       _Z10lcd_strlenPKc
        MOV      R9,R0
??_drawmenu_setting_edit_generic_2:
        RSB      R10,R9,#+20
        B.N      ??_drawmenu_setting_edit_generic_3
??_drawmenu_setting_edit_generic_4:
          CFI FunCall _Z19lcd_print_and_countc
        BL       _Z19lcd_print_and_countc
        SUB      R10,R10,R0
        ADDS     R5,R5,#+1
??_drawmenu_setting_edit_generic_3:
        LDRSB    R0,[R5, #+0]
        MOVS     R1,R0
        BNE.N    ??_drawmenu_setting_edit_generic_4
        MOVS     R1,#+58
        MOV      R0,R8
          CFI FunCall _ZN5Print5printEc
        BL       _ZN5Print5printEc
        B.N      ??_drawmenu_setting_edit_generic_5
??_drawmenu_setting_edit_generic_6:
        MOVS     R1,#+32
        MOV      R0,R8
          CFI FunCall _ZN5Print5printEc
        BL       _ZN5Print5printEc
??_drawmenu_setting_edit_generic_5:
        MOV      R0,R10
        SUB      R10,R0,#+1
        UXTB     R0,R0
        CMP      R0,#+0
        BNE.N    ??_drawmenu_setting_edit_generic_6
        LDRB     R2,[R7, #+1]
        UXTB     R9,R9
        ADD      R0,R9,R9, LSL #+1
        LSLS     R0,R0,#+1
        RSB      R0,R0,#+128
        MOV      R1,R0
        UXTB     R1,R1
        MOV      R0,R8
          CFI FunCall _ZN6U8GLIB11setPrintPosEhh
        BL       _ZN6U8GLIB11setPrintPosEhh
        CMP      R4,#+0
        MOV      R0,R6
        BEQ.N    ??_drawmenu_setting_edit_generic_7
        POP      {R4-R10,LR}
          CFI R4 SameValue
          CFI R5 SameValue
          CFI R6 SameValue
          CFI R7 SameValue
          CFI R8 SameValue
          CFI R9 SameValue
          CFI R10 SameValue
          CFI R14 SameValue
          CFI CFA R13+0
          CFI FunCall _Z12lcd_printPGMPKc
        B.W      _Z12lcd_printPGMPKc
          CFI R4 Frame(CFA, -32)
          CFI R5 Frame(CFA, -28)
          CFI R6 Frame(CFA, -24)
          CFI R7 Frame(CFA, -20)
          CFI R8 Frame(CFA, -16)
          CFI R9 Frame(CFA, -12)
          CFI R10 Frame(CFA, -8)
          CFI R14 Frame(CFA, -4)
          CFI CFA R13+32
??_drawmenu_setting_edit_generic_7:
        POP      {R4-R10,LR}
          CFI R4 SameValue
          CFI R5 SameValue
          CFI R6 SameValue
          CFI R7 SameValue
          CFI R8 SameValue
          CFI R9 SameValue
          CFI R10 SameValue
          CFI R14 SameValue
          CFI CFA R13+0
          CFI FunCall _Z9lcd_printPKc
        B.W      _Z9lcd_printPKc
          CFI R4 Frame(CFA, -32)
          CFI R5 Frame(CFA, -28)
          CFI R6 Frame(CFA, -24)
          CFI R7 Frame(CFA, -20)
          CFI R8 Frame(CFA, -16)
          CFI R9 Frame(CFA, -12)
          CFI R10 Frame(CFA, -8)
          CFI R14 Frame(CFA, -4)
          CFI CFA R13+32
??_drawmenu_setting_edit_generic_0:
        POP      {R4-R10,PC}      ;; return
          CFI EndBlock cfiBlock15

        SECTION `.text`:CODE:NOROOT(2)
        SECTION_TYPE SHT_PROGBITS, 0
        DATA
??DataTable101:
        DC32     row_y1+0x2C4

        SECTION `.text`:CODE:NOROOT(1)
          CFI Block cfiBlock16 Using cfiCommon0
          CFI Function _Z27lcd_implementation_draweditPKcS0_
        THUMB
// __interwork __softfp void lcd_implementation_drawedit(char const *, char const *)
_Z27lcd_implementation_draweditPKcS0_:
        PUSH     {R4-R10,LR}
          CFI R14 Frame(CFA, -4)
          CFI R10 Frame(CFA, -8)
          CFI R9 Frame(CFA, -12)
          CFI R8 Frame(CFA, -16)
          CFI R7 Frame(CFA, -20)
          CFI R6 Frame(CFA, -24)
          CFI R5 Frame(CFA, -28)
          CFI R4 Frame(CFA, -32)
          CFI CFA R13+32
        MOV      R5,R0
        MOV      R4,R1
          CFI FunCall _Z12lcd_strlen_PPKc
        BL       _Z12lcd_strlen_PPKc
        MOV      R7,R0
        MOV      R0,R4
          CFI FunCall _Z10lcd_strlenPKc
        BL       _Z10lcd_strlenPKc
        MOV      R6,R0
        UXTB     R6,R6
        RSB      R0,R6,#+20
        UXTB     R7,R7
        CMP      R0,R7
        BGE.N    ??lcd_implementation_drawedit_0
        MOVS     R7,#+2
        B.N      ??lcd_implementation_drawedit_1
??lcd_implementation_drawedit_0:
        MOVS     R7,#+1
??lcd_implementation_drawedit_1:
        LDR.W    R8,??DataTable126
        MOV      R0,R8
          CFI FunCall _ZN6U8GLIB9getHeightEv
        BL       _ZN6U8GLIB9getHeightEv
        MOV      R1,R7
        ADDS     R1,R1,#+1
        SDIV     R9,R0,R1
        ADD      R10,R9,#+6
        UXTB     R10,R10
        MOV      R0,R8
          CFI FunCall _ZN6U8GLIB6getU8gEv
        BL       _ZN6U8GLIB6getU8gEv
        LDRB     R0,[R0, #+73]
        CMP      R10,R0
        BLT.N    ??lcd_implementation_drawedit_2
        MOV      R0,R8
          CFI FunCall _ZN6U8GLIB6getU8gEv
        BL       _ZN6U8GLIB6getU8gEv
        LDRB     R0,[R0, #+75]
        SUB      R1,R10,#+11
        CMP      R0,R1
        BLT.N    ??lcd_implementation_drawedit_2
        MOV      R2,R10
        MOVS     R1,#+0
        MOV      R0,R8
          CFI FunCall _ZN6U8GLIB11setPrintPosEhh
        BL       _ZN6U8GLIB11setPrintPosEhh
        MOV      R0,R5
          CFI FunCall _Z12lcd_printPGMPKc
        BL       _Z12lcd_printPGMPKc
??lcd_implementation_drawedit_2:
        CMP      R4,#+0
        BEQ.N    ??lcd_implementation_drawedit_3
        SUBS     R0,R7,#+1
        MLA      R9,R9,R0,R10
        UXTB     R9,R9
        MOV      R0,R8
          CFI FunCall _ZN6U8GLIB6getU8gEv
        BL       _ZN6U8GLIB6getU8gEv
        LDRB     R0,[R0, #+73]
        CMP      R9,R0
        BLT.N    ??lcd_implementation_drawedit_3
        MOV      R0,R8
          CFI FunCall _ZN6U8GLIB6getU8gEv
        BL       _ZN6U8GLIB6getU8gEv
        LDRB     R0,[R0, #+75]
        SUB      R1,R9,#+11
        CMP      R0,R1
        BLT.N    ??lcd_implementation_drawedit_3
        MOVS     R1,#+58
        MOV      R0,R8
          CFI FunCall _ZN5Print5printEc
        BL       _ZN5Print5printEc
        MOV      R2,R9
        RSB      R6,R6,#+21
        ADD      R0,R6,R6, LSL #+1
        LSLS     R1,R0,#+1
        UXTB     R1,R1
        MOV      R0,R8
          CFI FunCall _ZN6U8GLIB11setPrintPosEhh
        BL       _ZN6U8GLIB11setPrintPosEhh
        MOV      R0,R4
        POP      {R4-R10,LR}
          CFI R4 SameValue
          CFI R5 SameValue
          CFI R6 SameValue
          CFI R7 SameValue
          CFI R8 SameValue
          CFI R9 SameValue
          CFI R10 SameValue
          CFI R14 SameValue
          CFI CFA R13+0
          CFI FunCall _Z9lcd_printPKc
        B.W      _Z9lcd_printPKc
          CFI R4 Frame(CFA, -32)
          CFI R5 Frame(CFA, -28)
          CFI R6 Frame(CFA, -24)
          CFI R7 Frame(CFA, -20)
          CFI R8 Frame(CFA, -16)
          CFI R9 Frame(CFA, -12)
          CFI R10 Frame(CFA, -8)
          CFI R14 Frame(CFA, -4)
          CFI CFA R13+32
??lcd_implementation_drawedit_3:
        POP      {R4-R10,PC}      ;; return
          CFI EndBlock cfiBlock16

        SECTION `.text`:CODE:NOROOT(2)
        SECTION_TYPE SHT_PROGBITS, 0
        DATA
??DataTable102:
        DC32     currentfont

        SECTION `.text`:CODE:NOROOT(1)
          CFI Block cfiBlock17 Using cfiCommon0
          CFI Function _ZN34_INTERNAL_12_ultralcd_cpp_6629db9212_drawmenu_sdEbhPKcS1_Pcb
        THUMB
// static __interwork __softfp void _drawmenu_sd(bool, uint8_t, char const *, char const *, char *, bool)
_ZN34_INTERNAL_12_ultralcd_cpp_6629db9212_drawmenu_sdEbhPKcS1_Pcb:
        PUSH     {R4-R6,LR}
          CFI R14 Frame(CFA, -4)
          CFI R6 Frame(CFA, -8)
          CFI R5 Frame(CFA, -12)
          CFI R4 Frame(CFA, -16)
          CFI CFA R13+16
        MOV      R2,R1
        MOV      R4,R3
        MOV      R1,R0
        MOV      R0,R2
          CFI FunCall _ZN34_INTERNAL_12_ultralcd_cpp_6629db9235lcd_implementation_mark_as_selectedEhb
        BL       _ZN34_INTERNAL_12_ultralcd_cpp_6629db9235lcd_implementation_mark_as_selectedEhb
        LDR.W    R6,??DataTable117_2
        ADD      R5,R6,#+708
        MOV      R0,R5
          CFI FunCall _ZN6U8GLIB6getU8gEv
        BL       _ZN6U8GLIB6getU8gEv
        LDRB     R1,[R6, #+1]
        LDRB     R0,[R0, #+73]
        CMP      R1,R0
        BCC.N    ??_drawmenu_sd_0
        MOV      R0,R5
          CFI FunCall _ZN6U8GLIB6getU8gEv
        BL       _ZN6U8GLIB6getU8gEv
        LDRB     R0,[R0, #+75]
        LDRB     R1,[R6, #+0]
        CMP      R0,R1
        BCC.N    ??_drawmenu_sd_0
        LDR      R1,[SP, #+16]
        MOVS     R6,#+21
        LDRSB    R0,[R1, #+0]
        CMP      R0,#+0
        BEQ.N    ??_drawmenu_sd_1
        MOV      R4,R1
        MOVS     R0,#+0
        STRB     R0,[R1, #+21]
??_drawmenu_sd_1:
        LDR      R0,[SP, #+20]
        CMP      R0,#+0
        BEQ.N    ??_drawmenu_sd_2
        MOVS     R0,#+2
          CFI FunCall _Z9lcd_printc
        BL       _Z9lcd_printc
        B.N      ??_drawmenu_sd_2
??_drawmenu_sd_3:
          CFI FunCall _Z19lcd_print_and_countc
        BL       _Z19lcd_print_and_countc
        SUBS     R6,R6,R0
        ADDS     R4,R4,#+1
??_drawmenu_sd_2:
        LDRSB    R0,[R4, #+0]
        MOVS     R1,R0
        BNE.N    ??_drawmenu_sd_3
??_drawmenu_sd_4:
        MOV      R0,R6
        SUBS     R6,R0,#+1
        UXTB     R0,R0
        CMP      R0,#+0
        BEQ.N    ??_drawmenu_sd_0
        MOVS     R1,#+32
        MOV      R0,R5
          CFI FunCall _ZN5Print5printEc
        BL       _ZN5Print5printEc
        B.N      ??_drawmenu_sd_4
??_drawmenu_sd_0:
        POP      {R4-R6,PC}       ;; return
          CFI EndBlock cfiBlock17
//   72   #include <U8glib.h>
//   73 #else
//   74   #include "ultralcd_impl_HD44780.h"
//   75 #endif
//   76 
//   77 // The main status screen
//   78 void lcd_status_screen();
//   79 
//   80 millis_t next_lcd_update_ms;
//   81 
//   82 uint8_t lcdDrawUpdate = LCDVIEW_CLEAR_CALL_REDRAW; // Set when the LCD needs to draw, decrements after every draw. Set to 2 in LCD routines so the LCD gets at least 1 full redraw (first redraw is partial)
//   83 uint16_t max_display_update_time = 0;
//   84 #ifdef USE_MKS_WIFI
//   85 extern char wifi_firm_ver[20] ;
//   86 #endif
//   87 #if ENABLED(DOGLCD)
//   88   bool drawing_screen = false;
//   89   #define LCDVIEW_KEEP_REDRAWING LCDVIEW_CALL_REDRAW_NEXT
//   90 #else
//   91   #define LCDVIEW_KEEP_REDRAWING LCDVIEW_REDRAW_NOW
//   92 #endif
//   93 
//   94 #if ENABLED(DAC_STEPPER_CURRENT)
//   95   #include "stepper_dac.h" //was dac_mcp4728.h MarlinMain uses stepper dac for the m-codes
//   96   int16_t driverPercent[XYZE];
//   97 #endif
//   98 
//   99 #if ENABLED(ULTIPANEL)
//  100 
//  101   #ifndef TALL_FONT_CORRECTION
//  102     #define TALL_FONT_CORRECTION 0
//  103   #endif
//  104 
//  105   // Function pointer to menu functions.
//  106   typedef void (*screenFunc_t)();
//  107 
//  108   #if HAS_POWER_SWITCH
//  109     extern bool powersupply;
//  110   #endif
//  111 
//  112 //  #if ENABLED(AUTO_BED_LEVELING_UBL)
//  113 #if 1
//  114     #include "ubl.h"
//  115   #endif
//  116 #ifdef USE_MKS_WIFI 
//  117   #include "wifi_module.h"
//  118 #endif
//  119   ////////////////////////////////////////////
//  120   ///////////////// Menu Tree ////////////////
//  121   ////////////////////////////////////////////
//  122 
//  123   void lcd_main_menu();
//  124   void lcd_tune_menu();
//  125   void lcd_prepare_menu();
//  126   void lcd_move_menu();
//  127   void lcd_control_menu();
//  128   void lcd_control_temperature_menu();
//  129   void lcd_control_temperature_preheat_material1_settings_menu();
//  130   void lcd_control_temperature_preheat_material2_settings_menu();
//  131   void lcd_control_motion_menu();
//  132   void lcd_control_filament_menu();
//  133   void lcd_filament_change_header();
//  134   void mks_lcd_move_get_e_amount();
//  135   void mks_lcd_move_get_e_amount_stop();
//  136 

        SECTION `.bss`:DATA:REORDER:NOROOT(0)
        DATA
//  137   bool mks_lcd_move_get_e_amount_flag = false;
mks_lcd_move_get_e_amount_flag:
        DS8 1
//  138   bool mks_lcd_move_get_e_amount_move_flag = false;
//  139   bool mks_lcd_move_get_e_amount_move_flag1 = false;
//  140   bool mks_lcd_move_get_e_amount_move_flag2 = false;
//  141   static millis_t mksms1;
//  142 

        SECTION `.bss`:DATA:REORDER:NOROOT(0)
        DATA
//  143   bool in_filament_flag = false, out_filament_flag = false;
in_filament_flag:
        DS8 1
out_filament_flag:
        DS8 1
//  144   bool in_filament_move_flag  = false, out_filament_move_flag = false;
//  145   
//  146   #if ENABLED(LCD_INFO_MENU)
//  147     #if ENABLED(PRINTCOUNTER)
//  148       void lcd_info_stats_menu();
//  149     #endif
//  150     void lcd_info_thermistors_menu();
//  151     void lcd_info_board_menu();
//  152     void lcd_info_menu();
//  153   #endif // LCD_INFO_MENU
//  154 
//  155   #if ENABLED(FILAMENT_CHANGE_FEATURE)
//  156     void lcd_filament_change_toocold_menu();
//  157     void lcd_filament_change_option_menu();
//  158     void lcd_filament_change_init_message();
//  159     void lcd_filament_change_unload_message();
//  160     void lcd_filament_change_insert_message();
//  161     void lcd_filament_change_load_message();
//  162     void lcd_filament_change_heat_nozzle();
//  163     void lcd_filament_change_extrude_message();
//  164     void lcd_filament_change_resume_message();
//  165   #endif
//  166 
//  167   #if ENABLED(DAC_STEPPER_CURRENT)
//  168     void dac_driver_commit();
//  169     void dac_driver_getValues();
//  170     void lcd_dac_menu();
//  171     void lcd_dac_write_eeprom();
//  172   #endif
//  173 
//  174   #if HAS_LCD_CONTRAST
//  175     void lcd_set_contrast();
//  176   #endif
//  177 
//  178   #if ENABLED(FWRETRACT)
//  179     void lcd_control_retract_menu();
//  180   #endif
//  181 
//  182   #if ENABLED(DELTA_CALIBRATION_MENU)
//  183     void lcd_delta_calibrate_menu();
//  184   #endif
//  185 
//  186  void lcd_wifi_info();
//  187  void lcd_cloud_service_menu();
//  188 //  #if ENABLED(MESH_BED_LEVELING) && ENABLED(LCD_BED_LEVELING)
//  189   #if 1 /*--mks cfg-- MESH_BED_LEVELING */
//  190     #include "mesh_bed_leveling.h"
//  191     extern void mesh_probing_done();
//  192   #endif
//  193 
//  194   ////////////////////////////////////////////
//  195   //////////// Menu System Actions ///////////
//  196   ////////////////////////////////////////////
//  197 
//  198   #define menu_action_back(dummy) _menu_action_back()
//  199   void _menu_action_back();
//  200   void menu_action_submenu(screenFunc_t data);
//  201   void menu_action_gcode(const char* pgcode);
//  202   void menu_action_function(screenFunc_t data);
//  203 
//  204   #define DECLARE_MENU_EDIT_TYPE(_type, _name) \ 
//  205     bool _menu_edit_ ## _name(); \ 
//  206     void menu_edit_ ## _name(); \ 
//  207     void menu_edit_callback_ ## _name(); \ 
//  208     void _menu_action_setting_edit_ ## _name(const char * const pstr, _type* const ptr, const _type minValue, const _type maxValue); \ 
//  209     void menu_action_setting_edit_ ## _name(const char * const pstr, _type * const ptr, const _type minValue, const _type maxValue); \ 
//  210     void menu_action_setting_edit_callback_ ## _name(const char * const pstr, _type * const ptr, const _type minValue, const _type maxValue, const screenFunc_t callback); \ 
//  211     typedef void _name##_void
//  212 
//  213   DECLARE_MENU_EDIT_TYPE(int, int3);
//  214   DECLARE_MENU_EDIT_TYPE(float, float3);
//  215   DECLARE_MENU_EDIT_TYPE(float, float32);
//  216   DECLARE_MENU_EDIT_TYPE(float, float43);
//  217   DECLARE_MENU_EDIT_TYPE(float, float5);
//  218   DECLARE_MENU_EDIT_TYPE(float, float51);
//  219   DECLARE_MENU_EDIT_TYPE(float, float52);
//  220   DECLARE_MENU_EDIT_TYPE(float, float62);
//  221   DECLARE_MENU_EDIT_TYPE(unsigned long, long5);
//  222 
//  223   void menu_action_setting_edit_bool(const char* pstr, bool* ptr);
//  224   void menu_action_setting_edit_callback_bool(const char* pstr, bool* ptr, screenFunc_t callbackFunc);
//  225 
//  226   #if ENABLED(SDSUPPORT)
//  227     void lcd_sdcard_menu();
//  228     void menu_action_sdfile(const char* filename, char* longFilename);
//  229     void menu_action_sddirectory(const char* filename, char* longFilename);
//  230   #endif
//  231 
//  232   ////////////////////////////////////////////
//  233   //////////// Menu System Macros ////////////
//  234   ////////////////////////////////////////////
//  235 
//  236   #ifndef ENCODER_FEEDRATE_DEADZONE
//  237     #define ENCODER_FEEDRATE_DEADZONE 10
//  238   #endif
//  239   #ifndef ENCODER_STEPS_PER_MENU_ITEM
//  240     #define ENCODER_STEPS_PER_MENU_ITEM 5
//  241   #endif
//  242   #ifndef ENCODER_PULSES_PER_STEP
//  243     #define ENCODER_PULSES_PER_STEP 1
//  244   #endif
//  245 
//  246   /**
//  247    * MENU_ITEM generates draw & handler code for a menu item, potentially calling:
//  248    *
//  249    *   lcd_implementation_drawmenu_[type](sel, row, label, arg3...)
//  250    *   menu_action_[type](arg3...)
//  251    *
//  252    * Examples:
//  253    *   MENU_ITEM(back, MSG_WATCH, 0 [dummy parameter] )
//  254    *   or
//  255    *   MENU_BACK(MSG_WATCH)
//  256    *     lcd_implementation_drawmenu_back(sel, row, PSTR(MSG_WATCH))
//  257    *     menu_action_back()
//  258    *
//  259    *   MENU_ITEM(function, MSG_PAUSE_PRINT, lcd_sdcard_pause)
//  260    *     lcd_implementation_drawmenu_function(sel, row, PSTR(MSG_PAUSE_PRINT), lcd_sdcard_pause)
//  261    *     menu_action_function(lcd_sdcard_pause)
//  262    *
//  263    *   MENU_ITEM_EDIT(int3, MSG_SPEED, &feedrate_percentage, 10, 999)
//  264    *   MENU_ITEM(setting_edit_int3, MSG_SPEED, PSTR(MSG_SPEED), &feedrate_percentage, 10, 999)
//  265    *     lcd_implementation_drawmenu_setting_edit_int3(sel, row, PSTR(MSG_SPEED), PSTR(MSG_SPEED), &feedrate_percentage, 10, 999)
//  266    *     menu_action_setting_edit_int3(PSTR(MSG_SPEED), &feedrate_percentage, 10, 999)
//  267    *
//  268    */
//  269   #define _MENU_ITEM_PART_1(TYPE, LABEL, ...) \ 
//  270     if (_menuLineNr == _thisItemNr) { \ 
//  271       if (lcdDrawUpdate) \ 
//  272         lcd_implementation_drawmenu_ ## TYPE(encoderLine == _thisItemNr, _lcdLineNr, PSTR(LABEL), ## __VA_ARGS__); \ 
//  273       if (lcd_clicked && encoderLine == _thisItemNr) {
//  274 
//  275   #define _MENU_ITEM_PART_2(TYPE, ...) \ 
//  276         menu_action_ ## TYPE(__VA_ARGS__); \ 
//  277         if (screen_changed) return; \ 
//  278       } \ 
//  279     } \ 
//  280     ++_thisItemNr
//  281 
//  282   #define MENU_ITEM(TYPE, LABEL, ...) do { \ 
//  283       _skipStatic = false; \ 
//  284       _MENU_ITEM_PART_1(TYPE, LABEL, ## __VA_ARGS__); \ 
//  285       _MENU_ITEM_PART_2(TYPE, ## __VA_ARGS__); \ 
//  286     } while(0)
//  287 
//  288   #define MENU_BACK(LABEL) MENU_ITEM(back, LABEL, 0)
//  289 
//  290   // Used to print static text with no visible cursor.
//  291   // Parameters: label [, bool center [, bool invert [, char *value] ] ]
//  292   #define STATIC_ITEM(LABEL, ...) \ 
//  293     if (_menuLineNr == _thisItemNr) { \ 
//  294       if (_skipStatic && encoderLine <= _thisItemNr) { \ 
//  295         encoderPosition += ENCODER_STEPS_PER_MENU_ITEM; \ 
//  296         ++encoderLine; \ 
//  297       } \ 
//  298       if (lcdDrawUpdate) \ 
//  299         lcd_implementation_drawmenu_static(_lcdLineNr, PSTR(LABEL), ## __VA_ARGS__); \ 
//  300     } \ 
//  301     ++_thisItemNr
//  302 
//  303   #if ENABLED(ENCODER_RATE_MULTIPLIER)
//  304 
//  305     bool encoderRateMultiplierEnabled;
//  306     #define ENCODER_RATE_MULTIPLY(F) (encoderRateMultiplierEnabled = F)
//  307 
//  308     //#define ENCODER_RATE_MULTIPLIER_DEBUG  // If defined, output the encoder steps per second value
//  309 
//  310     /**
//  311      * MENU_MULTIPLIER_ITEM generates drawing and handling code for a multiplier menu item
//  312      */
//  313     #define MENU_MULTIPLIER_ITEM(type, label, ...) do { \ 
//  314         _MENU_ITEM_PART_1(type, label, ## __VA_ARGS__); \ 
//  315         encoderRateMultiplierEnabled = true; \ 
//  316         lastEncoderMovementMillis = 0; \ 
//  317         _MENU_ITEM_PART_2(type, ## __VA_ARGS__); \ 
//  318       } while(0)
//  319 
//  320   #else  // !ENCODER_RATE_MULTIPLIER
//  321     #define ENCODER_RATE_MULTIPLY(F) NOOP
//  322   #endif // !ENCODER_RATE_MULTIPLIER
//  323 
//  324   #define MENU_ITEM_DUMMY() do { _thisItemNr++; } while(0)
//  325   #define MENU_ITEM_EDIT(type, label, ...) MENU_ITEM(setting_edit_ ## type, label, PSTR(label), ## __VA_ARGS__)
//  326   #define MENU_ITEM_EDIT_CALLBACK(type, label, ...) MENU_ITEM(setting_edit_callback_ ## type, label, PSTR(label), ## __VA_ARGS__)
//  327   #if ENABLED(ENCODER_RATE_MULTIPLIER)
//  328     #define MENU_MULTIPLIER_ITEM_EDIT(type, label, ...) MENU_MULTIPLIER_ITEM(setting_edit_ ## type, label, PSTR(label), ## __VA_ARGS__)
//  329     #define MENU_MULTIPLIER_ITEM_EDIT_CALLBACK(type, label, ...) MENU_MULTIPLIER_ITEM(setting_edit_callback_ ## type, label, PSTR(label), ## __VA_ARGS__)
//  330   #else //!ENCODER_RATE_MULTIPLIER
//  331     #define MENU_MULTIPLIER_ITEM_EDIT(type, label, ...) MENU_ITEM(setting_edit_ ## type, label, PSTR(label), ## __VA_ARGS__)
//  332     #define MENU_MULTIPLIER_ITEM_EDIT_CALLBACK(type, label, ...) MENU_ITEM(setting_edit_callback_ ## type, label, PSTR(label), ## __VA_ARGS__)
//  333   #endif //!ENCODER_RATE_MULTIPLIER
//  334 
//  335   /**
//  336    * START_SCREEN_OR_MENU generates init code for a screen or menu
//  337    *
//  338    *   encoderLine is the position based on the encoder
//  339    *   encoderTopLine is the top menu line to display
//  340    *   _lcdLineNr is the index of the LCD line (e.g., 0-3)
//  341    *   _menuLineNr is the menu item to draw and process
//  342    *   _thisItemNr is the index of each MENU_ITEM or STATIC_ITEM
//  343    *   _countedItems is the total number of items in the menu (after one call)
//  344    */
//  345   #define START_SCREEN_OR_MENU(LIMIT) \ 
//  346     ENCODER_DIRECTION_MENUS(); \ 
//  347     ENCODER_RATE_MULTIPLY(false); \ 
//  348     if (encoderPosition > 0x8000) encoderPosition = 0; \ 
//  349     static int8_t _countedItems = 0; \ 
//  350     int8_t encoderLine = encoderPosition / (ENCODER_STEPS_PER_MENU_ITEM); \ 
//  351     if (_countedItems > 0 && encoderLine >= _countedItems - (LIMIT)) { \ 
//  352       encoderLine = max(0, _countedItems - (LIMIT)); \ 
//  353       encoderPosition = encoderLine * (ENCODER_STEPS_PER_MENU_ITEM); \ 
//  354     }
//  355 
//  356   #define SCREEN_OR_MENU_LOOP() \ 
//  357     int8_t _menuLineNr = encoderTopLine, _thisItemNr; \ 
//  358     for (int8_t _lcdLineNr = 0; _lcdLineNr < LCD_HEIGHT - (TALL_FONT_CORRECTION); _lcdLineNr++, _menuLineNr++) { \ 
//  359       _thisItemNr = 0
//  360 
//  361   /**
//  362    * START_SCREEN  Opening code for a screen having only static items.
//  363    *               Do simplified scrolling of the entire screen.
//  364    *
//  365    * START_MENU    Opening code for a screen with menu items.
//  366    *               Scroll as-needed to keep the selected line in view.
//  367    */
//  368   #define START_SCREEN() \ 
//  369     START_SCREEN_OR_MENU(LCD_HEIGHT - (TALL_FONT_CORRECTION)); \ 
//  370     encoderTopLine = encoderLine; \ 
//  371     bool _skipStatic = false; \ 
//  372     SCREEN_OR_MENU_LOOP()
//  373 
//  374   #define START_MENU() \ 
//  375     START_SCREEN_OR_MENU(1); \ 
//  376     screen_changed = false; \ 
//  377     NOMORE(encoderTopLine, encoderLine); \ 
//  378     if (encoderLine >= encoderTopLine + LCD_HEIGHT - (TALL_FONT_CORRECTION)) { \ 
//  379       encoderTopLine = encoderLine - (LCD_HEIGHT - (TALL_FONT_CORRECTION) - 1); \ 
//  380     } \ 
//  381     bool _skipStatic = true; \ 
//  382     SCREEN_OR_MENU_LOOP()
//  383 
//  384   #define END_SCREEN() \ 
//  385     } \ 
//  386     _countedItems = _thisItemNr
//  387 
//  388   #define END_MENU() \ 
//  389     } \ 
//  390     _countedItems = _thisItemNr; \ 
//  391     UNUSED(_skipStatic)
//  392 
//  393   ////////////////////////////////////////////
//  394   ///////////// Global Variables /////////////
//  395   ////////////////////////////////////////////
//  396 
//  397   /**
//  398    * REVERSE_MENU_DIRECTION
//  399    *
//  400    * To reverse the menu direction we need a general way to reverse
//  401    * the direction of the encoder everywhere. So encoderDirection is
//  402    * added to allow the encoder to go the other way.
//  403    *
//  404    * This behavior is limited to scrolling Menus and SD card listings,
//  405    * and is disabled in other contexts.
//  406    */
//  407   #if ENABLED(REVERSE_MENU_DIRECTION)
//  408     int8_t encoderDirection = 1;
//  409     #define ENCODER_DIRECTION_NORMAL() (encoderDirection = 1)
//  410     #define ENCODER_DIRECTION_MENUS() (encoderDirection = -1)
//  411   #else
//  412     #define ENCODER_DIRECTION_NORMAL() ;
//  413     #define ENCODER_DIRECTION_MENUS() ;
//  414   #endif
//  415 
//  416   // Encoder Movement
//  417   volatile int8_t encoderDiff; // Updated in lcd_buttons_update, added to encoderPosition every LCD update
//  418   uint32_t encoderPosition;
//  419   millis_t lastEncoderMovementMillis = 0;
//  420 
//  421   // Button States
//  422   bool lcd_clicked, wait_for_unclick;
//  423   volatile uint8_t buttons;
//  424   millis_t next_button_update_ms;
//  425   #if ENABLED(REPRAPWORLD_KEYPAD)
//  426     volatile uint8_t buttons_reprapworld_keypad;
//  427   #endif
//  428   #if ENABLED(LCD_HAS_SLOW_BUTTONS)
//  429     volatile uint8_t slow_buttons;
//  430   #endif
//  431 
//  432   // Menu System Navigation
//  433   screenFunc_t currentScreen = lcd_status_screen;
//  434   int8_t encoderTopLine;
//  435   typedef struct {
//  436     screenFunc_t menu_function;
//  437     uint32_t encoder_position;
//  438   } menuPosition;

        SECTION `.bss`:DATA:REORDER:NOROOT(2)
        DATA
//  439   menuPosition screen_history[6];
screen_history:
        DS8 48
//  440   uint8_t screen_history_depth = 0;
//  441   bool screen_changed, defer_return_to_status;
//  442 
//  443   // Value Editing
//  444   const char *editLabel;
//  445   void *editValue;
//  446   int32_t minEditValue, maxEditValue;
//  447   screenFunc_t callbackFunc;
//  448 
//  449   // Manual Moves
//  450   //const float manual_feedrate_mm_m[] = MANUAL_FEEDRATE;	//mks
//  451   float manual_feedrate_mm_m[4];
//  452   
//  453   millis_t manual_move_start_time = 0;
//  454   int8_t manual_move_axis = (int8_t)NO_AXIS;
//  455   #if EXTRUDERS > 1
//  456     int8_t manual_move_e_index = 0;
//  457   #else
//  458     #define manual_move_e_index 0
//  459   #endif
//  460 
//  461   #if PIN_EXISTS(SD_DETECT)
//  462     uint8_t lcd_sd_status;
//  463   #endif
//  464 
//  465 //  #if ENABLED(PIDTEMP)	/*--mks cfg end--*/
//  466 #if 1
//  467     float raw_Ki, raw_Kd; // place-holders for Ki and Kd edits
//  468   #endif
//  469 
//  470   /**
//  471    * General function to go directly to a screen
//  472    */

        SECTION `.text`:CODE:NOROOT(1)
          CFI Block cfiBlock18 Using cfiCommon0
          CFI Function _Z15lcd_goto_screenPFvvEj
        THUMB
//  473   void lcd_goto_screen(screenFunc_t screen, const uint32_t encoder = 0) {
_Z15lcd_goto_screenPFvvEj:
        PUSH     {R4,LR}
          CFI R14 Frame(CFA, -4)
          CFI R4 Frame(CFA, -8)
          CFI CFA R13+8
//  474     if (currentScreen != screen) {
        LDR.W    R4,??DataTable117_2
        LDR      R2,[R4, #+84]
        MOV      R3,R0
        CMP      R2,R3
        BEQ.N    ??lcd_goto_screen_0
//  475 
//  476       #if ENABLED(DOUBLECLICK_FOR_Z_BABYSTEPPING) && ENABLED(BABYSTEPPING)
//  477         static millis_t doubleclick_expire_ms = 0;
//  478         // Going to lcd_main_menu from status screen? Remember first click time.
//  479         // Going back to status screen within a very short time? Go to Z babystepping.
//  480         if (screen == lcd_main_menu) {
//  481           if (currentScreen == lcd_status_screen)
//  482             doubleclick_expire_ms = millis() + DOUBLECLICK_MAX_INTERVAL;
//  483         }
//  484         else if (screen == lcd_status_screen && currentScreen == lcd_main_menu && PENDING(millis(), doubleclick_expire_ms))
//  485           screen =
//  486             #if ENABLED(BABYSTEP_ZPROBE_OFFSET)
//  487               lcd_babystep_zoffset
//  488             #else
//  489               lcd_babystep_z
//  490             #endif
//  491           ;
//  492       #endif
//  493 
//  494       currentScreen = screen;
        STR      R0,[R4, #+84]
//  495       encoderPosition = encoder;
        STR      R1,[R4, #+72]
//  496       if (screen == lcd_status_screen) {
        ADR.W    R1,_Z17lcd_status_screenv
        CMP      R0,R1
        BNE.N    ??lcd_goto_screen_1
//  497         defer_return_to_status = false;
        MOVS     R0,#+0
        STRB     R0,[R4, #+17]
//  498         screen_history_depth = 0;
        STRB     R0,[R4, #+15]
//  499       }
//  500       lcd_implementation_clear();
??lcd_goto_screen_1:
          CFI FunCall _Z24lcd_implementation_clearv
        BL       _Z24lcd_implementation_clearv
//  501       #if ENABLED(LCD_PROGRESS_BAR)
//  502         // For LCD_PROGRESS_BAR re-initialize custom characters
//  503         lcd_set_custom_characters(screen == lcd_status_screen);
//  504       #endif
//  505       lcdDrawUpdate = LCDVIEW_CALL_REDRAW_NEXT;
        MOVS     R0,#+2
        STRB     R0,[R4, #+2]
//  506       screen_changed = true;
        MOVS     R0,#+1
        STRB     R0,[R4, #+16]
//  507       #if ENABLED(DOGLCD)
//  508         drawing_screen = false;
        MOVS     R0,#+0
        STRB     R0,[R4, #+3]
//  509       #endif
//  510     }
//  511   }
??lcd_goto_screen_0:
        POP      {R4,PC}          ;; return
          CFI EndBlock cfiBlock18

        SECTION `.text`:CODE:NOROOT(2)
        SECTION_TYPE SHT_PROGBITS, 0
        DATA
??DataTable104:
        DC32     `lcd_implementation_init()::show_bootscreen`
//  512 
//  513   /**
//  514    * Synchronize safely while holding the current screen
//  515    * This blocks all further screen or stripe updates once called
//  516    */
//  517   extern uint8_t commands_in_queue;
//  518 
//  519   inline void lcd_synchronize() {

        SECTION `.bss`:DATA:REORDER:NOROOT(0)
        SECTION_GROUP _ZZ15lcd_synchronizevE10no_reentry
        DATA
//  520     static bool no_reentry = false;
_ZZ15lcd_synchronizevE10no_reentry:
        DS8 1
//  521     lcd_implementation_drawmenu_static(LCD_HEIGHT >= 4 ? 1 : 0, PSTR(MSG_MOVING));
//  522     if (no_reentry) return;
//  523     no_reentry = true;
//  524     screenFunc_t old_screen = currentScreen;
//  525     lcd_goto_screen(lcd_synchronize);
//  526     while (commands_in_queue) {
//  527       idle();
//  528       stepper.synchronize();
//  529     }
//  530     no_reentry = false;
//  531     lcd_goto_screen(old_screen);
//  532   }
//  533 

        SECTION `.text`:CODE:NOROOT(1)
          CFI Block cfiBlock19 Using cfiCommon0
          CFI Function _Z20lcd_return_to_statusv
        THUMB
//  534   void lcd_return_to_status() { lcd_goto_screen(lcd_status_screen); }
_Z20lcd_return_to_statusv:
        MOVS     R1,#+0
        ADR.W    R0,_Z17lcd_status_screenv
          CFI FunCall _Z15lcd_goto_screenPFvvEj
        B.N      _Z15lcd_goto_screenPFvvEj
          CFI EndBlock cfiBlock19
//  535 

        SECTION `.text`:CODE:NOROOT(1)
          CFI Block cfiBlock20 Using cfiCommon0
          CFI Function _Z24lcd_save_previous_screenv
          CFI NoCalls
        THUMB
//  536   void lcd_save_previous_screen() {
_Z24lcd_save_previous_screenv:
        LDR.W    R0,??DataTable117_2
        LDRB     R1,[R0, #+15]
        MOV      R2,R1
        CMP      R2,#+6
        BCC.N    ??lcd_save_previous_screen_0
        BX       LR
??lcd_save_previous_screen_0:
        PUSH     {R4}
          CFI R4 Frame(CFA, -4)
          CFI CFA R13+4
//  537     if (screen_history_depth < COUNT(screen_history)) {
//  538       screen_history[screen_history_depth].menu_function = currentScreen;
        LDR.W    R3,??DataTable126_1
        LDR      R4,[R0, #+84]
        STR      R4,[R3, R2, LSL #+3]
//  539       screen_history[screen_history_depth].encoder_position = encoderPosition;
        LDR      R4,[R0, #+72]
        ADD      R2,R3,R2, LSL #+3
        STR      R4,[R2, #+4]
//  540       ++screen_history_depth;
        ADDS     R1,R1,#+1
        STRB     R1,[R0, #+15]
//  541     }
//  542   }
        POP      {R4}
          CFI R4 SameValue
          CFI CFA R13+0
        BX       LR               ;; return
          CFI EndBlock cfiBlock20
//  543 

        SECTION `.text`:CODE:NOROOT(1)
          CFI Block cfiBlock21 Using cfiCommon0
          CFI Function _Z22lcd_goto_previous_menuv
        THUMB
//  544   void lcd_goto_previous_menu() {
//  545     if (screen_history_depth > 0) {
_Z22lcd_goto_previous_menuv:
        LDR.W    R1,??DataTable117_2
        LDRB     R0,[R1, #+15]
        CMP      R0,#+0
        BEQ.N    ??lcd_goto_previous_menu_0
//  546       --screen_history_depth;
        SUBS     R0,R0,#+1
        STRB     R0,[R1, #+15]
//  547       lcd_goto_screen(
//  548         screen_history[screen_history_depth].menu_function,
//  549         screen_history[screen_history_depth].encoder_position
//  550       );
        UXTB     R0,R0
        LDR.W    R2,??DataTable126_1
        ADD      R1,R2,R0, LSL #+3
        LDR      R1,[R1, #+4]
        LDR      R0,[R2, R0, LSL #+3]
          CFI FunCall _Z15lcd_goto_screenPFvvEj
        B.N      _Z15lcd_goto_screenPFvvEj
//  551     }
//  552     else
//  553       lcd_return_to_status();
??lcd_goto_previous_menu_0:
          CFI FunCall _Z20lcd_return_to_statusv
        B.N      _Z20lcd_return_to_statusv
//  554   }
          CFI EndBlock cfiBlock21
//  555 
//  556 #endif // ULTIPANEL
//  557 
//  558 /**
//  559  *
//  560  * "Info Screen"
//  561  *
//  562  * This is very display-dependent, so the lcd implementation draws this.
//  563  */
//  564 

        SECTION `.text`:CODE:NOROOT(2)
          CFI Block cfiBlock22 Using cfiCommon0
          CFI Function _Z17lcd_status_screenv
        THUMB
//  565 void lcd_status_screen() {
_Z17lcd_status_screenv:
        PUSH     {R4,LR}
          CFI R14 Frame(CFA, -4)
          CFI R4 Frame(CFA, -8)
          CFI CFA R13+8
//  566 
//  567   #if ENABLED(ULTIPANEL)
//  568     ENCODER_DIRECTION_NORMAL();
//  569     ENCODER_RATE_MULTIPLY(false);
        LDR.W    R4,??DataTable117_2
        MOVS     R0,#+0
        STRB     R0,[R4, #+9]
//  570   #endif
//  571 
//  572   #if ENABLED(LCD_PROGRESS_BAR)
//  573     millis_t ms = millis();
//  574     #if DISABLED(PROGRESS_MSG_ONCE)
//  575       if (ELAPSED(ms, progress_bar_ms + PROGRESS_BAR_MSG_TIME + PROGRESS_BAR_BAR_TIME)) {
//  576         progress_bar_ms = ms;
//  577       }
//  578     #endif
//  579     #if PROGRESS_MSG_EXPIRE > 0
//  580       // Handle message expire
//  581       if (expire_status_ms > 0) {
//  582         #if ENABLED(SDSUPPORT)
//  583           if (card.isFileOpen()) {
//  584             // Expire the message when printing is active
//  585             if (IS_SD_PRINTING) {
//  586               if (ELAPSED(ms, expire_status_ms)) {
//  587                 lcd_status_message[0] = '\0';
//  588                 expire_status_ms = 0;
//  589               }
//  590             }
//  591             else {
//  592               expire_status_ms += LCD_UPDATE_INTERVAL;
//  593             }
//  594           }
//  595           else {
//  596             expire_status_ms = 0;
//  597           }
//  598         #else
//  599           expire_status_ms = 0;
//  600         #endif //SDSUPPORT
//  601       }
//  602     #endif
//  603   #endif //LCD_PROGRESS_BAR
//  604 
//  605   lcd_implementation_status_screen();
          CFI FunCall _ZN34_INTERNAL_12_ultralcd_cpp_6629db9232lcd_implementation_status_screenEv
        BL       _ZN34_INTERNAL_12_ultralcd_cpp_6629db9232lcd_implementation_status_screenEv
//  606 
//  607   #if ENABLED(ULTIPANEL)
//  608 
//  609     if (lcd_clicked) {
        LDRB     R0,[R4, #+11]
        CMP      R0,#+0
        BEQ.N    ??lcd_status_screen_0
//  610       #if ENABLED(FILAMENT_LCD_DISPLAY) && ENABLED(SDSUPPORT)
//  611         previous_lcd_status_ms = millis();  // get status message to show up for a while
//  612       #endif
//  613       lcd_implementation_init( // to maybe revive the LCD if static electricity killed it.
//  614         #if ENABLED(LCD_PROGRESS_BAR)
//  615           false
//  616         #endif
//  617       );
          CFI FunCall _ZN34_INTERNAL_12_ultralcd_cpp_6629db9223lcd_implementation_initEv
        BL       _ZN34_INTERNAL_12_ultralcd_cpp_6629db9223lcd_implementation_initEv
//  618       lcd_goto_screen(lcd_main_menu);
        MOVS     R1,#+0
        LDR.W    R0,??DataTable126_2
          CFI FunCall _Z15lcd_goto_screenPFvvEj
        BL       _Z15lcd_goto_screenPFvvEj
//  619     }
//  620 
//  621     #if ENABLED(ULTIPANEL_FEEDMULTIPLY)
//  622       int new_frm = feedrate_percentage + (int32_t)encoderPosition;
??lcd_status_screen_0:
        LDR      R0,[R4, #+72]
        LDR.W    R1,??DataTable119
        LDR      R2,[R1, #+0]
        ADDS     R3,R0,R2
//  623       // Dead zone at 100% feedrate
//  624       if ((feedrate_percentage < 100 && new_frm > 100) || (feedrate_percentage > 100 && new_frm < 100)) {
        CMP      R2,#+100
        BGE.N    ??lcd_status_screen_1
        CMP      R3,#+100
        BGT.N    ??lcd_status_screen_2
??lcd_status_screen_1:
        CMP      R2,#+100
        BLE.N    ??lcd_status_screen_3
        CMP      R3,#+100
        BGE.N    ??lcd_status_screen_3
//  625         feedrate_percentage = 100;
??lcd_status_screen_2:
        MOVS     R0,#+100
        STR      R0,[R1, #+0]
//  626         encoderPosition = 0;
        MOVS     R0,#+0
        STR      R0,[R4, #+72]
        B.N      ??lcd_status_screen_4
//  627       }
//  628       else if (feedrate_percentage == 100) {
??lcd_status_screen_3:
        CMP      R2,#+100
        BNE.N    ??lcd_status_screen_5
//  629         if ((int32_t)encoderPosition > ENCODER_FEEDRATE_DEADZONE) {
        CMP      R0,#+10
        BLE.N    ??lcd_status_screen_6
//  630           feedrate_percentage += (int32_t)encoderPosition - (ENCODER_FEEDRATE_DEADZONE);
        ADDS     R0,R0,#+90
        STR      R0,[R1, #+0]
//  631           encoderPosition = 0;
        MOVS     R0,#+0
        STR      R0,[R4, #+72]
        B.N      ??lcd_status_screen_4
//  632         }
//  633         else if ((int32_t)encoderPosition < -(ENCODER_FEEDRATE_DEADZONE)) {
??lcd_status_screen_6:
        CMN      R0,#+10
        BGE.N    ??lcd_status_screen_4
//  634           feedrate_percentage += (int32_t)encoderPosition + ENCODER_FEEDRATE_DEADZONE;
        ADDS     R0,R0,#+110
        STR      R0,[R1, #+0]
//  635           encoderPosition = 0;
        MOVS     R0,#+0
        STR      R0,[R4, #+72]
        B.N      ??lcd_status_screen_4
//  636         }
//  637       }
//  638       else {
//  639         feedrate_percentage = new_frm;
??lcd_status_screen_5:
        STR      R3,[R1, #+0]
//  640         encoderPosition = 0;
        MOVS     R0,#+0
        STR      R0,[R4, #+72]
//  641       }
//  642     #endif // ULTIPANEL_FEEDMULTIPLY
//  643 
//  644     feedrate_percentage = constrain(feedrate_percentage, 10, 999);
??lcd_status_screen_4:
        LDR      R0,[R1, #+0]
        CMP      R0,#+9
        BGT.N    ??lcd_status_screen_7
        MOVS     R0,#+10
        STR      R0,[R1, #+0]
        POP      {R4,PC}
??lcd_status_screen_7:
        MOVW     R2,#+999
        CMP      R0,R2
        BLE.N    ??lcd_status_screen_8
        STR      R2,[R1, #+0]
//  645 
//  646   #endif //ULTIPANEL
//  647 }
??lcd_status_screen_8:
        POP      {R4,PC}          ;; return
          CFI EndBlock cfiBlock22
//  648 
//  649 /**
//  650  *
//  651  * draw the kill screen
//  652  *
//  653  */

        SECTION `.text`:CODE:NOROOT(1)
          CFI Block cfiBlock23 Using cfiCommon0
          CFI Function _Z11kill_screenPKc
        THUMB
//  654 void kill_screen(const char* lcd_msg) {
_Z11kill_screenPKc:
        PUSH     {R4,LR}
          CFI R14 Frame(CFA, -4)
          CFI R4 Frame(CFA, -8)
          CFI CFA R13+8
        MOV      R4,R0
//  655   lcd_init();
          CFI FunCall _Z8lcd_initv
        BL       _Z8lcd_initv
//  656   lcd_setalertstatuspgm(lcd_msg);
        MOV      R0,R4
          CFI FunCall _Z21lcd_setalertstatuspgmPKc
        BL       _Z21lcd_setalertstatuspgmPKc
//  657   #if ENABLED(DOGLCD)
//  658     u8g.firstPage();
        LDR.W    R4,??DataTable126
        MOV      R0,R4
          CFI FunCall _ZN6U8GLIB9firstPageEv
        BL       _ZN6U8GLIB9firstPageEv
//  659     do {
//  660       lcd_kill_screen();
??kill_screen_0:
          CFI FunCall _Z15lcd_kill_screenv
        BL       _Z15lcd_kill_screenv
//  661     } while (u8g.nextPage());
        MOV      R0,R4
          CFI FunCall _ZN6U8GLIB8nextPageEv
        BL       _ZN6U8GLIB8nextPageEv
        CMP      R0,#+0
        BNE.N    ??kill_screen_0
//  662   #else
//  663     lcd_kill_screen();
//  664   #endif
//  665 }
        POP      {R4,PC}          ;; return
          CFI EndBlock cfiBlock23
//  666 #include "mks_test.h"

        SECTION `.text`:CODE:NOROOT(1)
          CFI Block cfiBlock24 Using cfiCommon0
          CFI Function _Z11test_screenv
        THUMB
//  667 void test_screen()
//  668 {
_Z11test_screenv:
        PUSH     {R4,R5,LR}
          CFI R14 Frame(CFA, -4)
          CFI R5 Frame(CFA, -8)
          CFI R4 Frame(CFA, -12)
          CFI CFA R13+12
        SUB      SP,SP,#+84
          CFI CFA R13+96
//  669 	char temp[20];
//  670 	char buffer[30]="TH=";
        ADD      R0,SP,#+32
        LDR.W    R1,??DataTable126_3
        MOVS     R2,#+32
          CFI FunCall __aeabi_memcpy4
        BL       __aeabi_memcpy4
//  671 	int temperature;
//  672 
//  673 	char endstop[30]="END=";
        MOV      R0,SP
        LDR.W    R1,??DataTable126_4
        MOVS     R2,#+32
          CFI FunCall __aeabi_memcpy4
        BL       __aeabi_memcpy4
//  674 
//  675 	//char eeprombuf[20]="   EPR=";
//  676 	
//  677 	temperature = (int)thermalManager.current_temperature[0];
        LDR.W    R0,??DataTable126_5
        LDR      R0,[R0, #+0]
          CFI FunCall __aeabi_f2iz
        BL       __aeabi_f2iz
        MOV      R4,R0
//  678 	sprintf(temp,"%d",temperature);
        ADR.N    R5,??DataTable116  ;; 0x25, 0x64, 0x00, 0x00
        MOV      R2,R4
        MOV      R1,R5
        ADD      R0,SP,#+64
          CFI FunCall sprintf
        BL       sprintf
//  679 	if(temperature > 4 && temperature < 50)
        SUBS     R4,R4,#+5
        CMP      R4,#+45
        BCS.N    ??test_screen_0
//  680 		strcat(buffer,temp);
        ADD      R1,SP,#+64
        ADD      R0,SP,#+32
          CFI FunCall strcat
        BL       strcat
        B.N      ??test_screen_1
//  681 	else
//  682 		strcat(buffer,"err");
??test_screen_0:
        ADR.N    R1,??DataTable116_1  ;; "err"
        ADD      R0,SP,#+32
          CFI FunCall strcat
        BL       strcat
//  683 	
//  684 	strcat(buffer,"       TB=");
??test_screen_1:
        LDR.W    R1,??DataTable126_6
        ADD      R0,SP,#+32
          CFI FunCall strcat
        BL       strcat
//  685 	temperature = (int)thermalManager.current_temperature_bed;
        LDR.W    R0,??DataTable126_7
        LDR      R0,[R0, #+0]
          CFI FunCall __aeabi_f2iz
        BL       __aeabi_f2iz
        MOV      R4,R0
//  686 	sprintf(temp,"%d",temperature);
        MOV      R2,R4
        MOV      R1,R5
        ADD      R0,SP,#+64
          CFI FunCall sprintf
        BL       sprintf
//  687 	if(temperature > 4 && temperature < 50)
        SUBS     R4,R4,#+5
        CMP      R4,#+45
        BCS.N    ??test_screen_2
//  688 		strcat(buffer,temp);
        ADD      R1,SP,#+64
        ADD      R0,SP,#+32
          CFI FunCall strcat
        BL       strcat
        B.N      ??test_screen_3
//  689 	else
//  690 		strcat(buffer,"err");
??test_screen_2:
        ADR.N    R1,??DataTable116_1  ;; "err"
        ADD      R0,SP,#+32
          CFI FunCall strcat
        BL       strcat
//  691 
//  692 
//  693 	if(mksEndStopsCnt) strcat(endstop,"err");
??test_screen_3:
        LDR.W    R4,??DataTable126_8
        LDRSB    R0,[R4, #+0]
        CMP      R0,#+0
        BEQ.N    ??test_screen_4
        ADR.N    R1,??DataTable116_1  ;; "err"
        MOV      R0,SP
          CFI FunCall strcat
        BL       strcat
        B.N      ??test_screen_5
//  694     else strcat(endstop,"ok ");
??test_screen_4:
        ADR.N    R1,??DataTable117  ;; "ok "
        MOV      R0,SP
          CFI FunCall strcat
        BL       strcat
//  695 
//  696 	strcat(endstop,"     ROM=");
??test_screen_5:
        LDR.W    R1,??DataTable126_9
        MOV      R0,SP
          CFI FunCall strcat
        BL       strcat
//  697 	
//  698 	if(mksEeprom_state) strcat(endstop,"ok ");
        LDR.W    R1,??DataTable126_10
        LDRSB    R1,[R1, #+0]
        CMP      R1,#+0
        BEQ.N    ??test_screen_6
        ADR.N    R1,??DataTable117  ;; "ok "
          CFI FunCall strcat
        BL       strcat
        B.N      ??test_screen_7
//  699 	else strcat(endstop,"err");
??test_screen_6:
        ADR.N    R1,??DataTable116_1  ;; "err"
        MOV      R0,SP
          CFI FunCall strcat
        BL       strcat
//  700 			
//  701 	lcd_init();
??test_screen_7:
          CFI FunCall _Z8lcd_initv
        BL       _Z8lcd_initv
//  702 
//  703 	u8g.firstPage();
        LDR.W    R5,??DataTable126
        MOV      R0,R5
          CFI FunCall _ZN6U8GLIB9firstPageEv
        BL       _ZN6U8GLIB9firstPageEv
//  704 	do {
//  705 		lcd_setFont(FONT_MENU);
??test_screen_8:
        MOVS     R0,#+4
          CFI FunCall _ZN34_INTERNAL_12_ultralcd_cpp_6629db9211lcd_setFontEc
        BL       _ZN34_INTERNAL_12_ultralcd_cpp_6629db9211lcd_setFontEc
//  706 		u8g.setPrintPos(30, u8g.getHeight()/5*1);
        MOV      R0,R5
          CFI FunCall _ZN6U8GLIB9getHeightEv
        BL       _ZN6U8GLIB9getHeightEv
        MOVS     R1,#+5
        SDIV     R0,R0,R1
        MOV      R2,R0
        UXTB     R2,R2
        MOVS     R1,#+30
        MOV      R0,R5
          CFI FunCall _ZN6U8GLIB11setPrintPosEhh
        BL       _ZN6U8GLIB11setPrintPosEhh
//  707 		lcd_print("mksRobinLite");
        ADR.W    R0,?_11
          CFI FunCall _Z9lcd_printPKc
        BL       _Z9lcd_printPKc
//  708 		u8g.setPrintPos(0, u8g.getHeight()/5*2);
        MOV      R0,R5
          CFI FunCall _ZN6U8GLIB9getHeightEv
        BL       _ZN6U8GLIB9getHeightEv
        MOVS     R1,#+5
        SDIV     R0,R0,R1
        LSLS     R2,R0,#+1
        UXTB     R2,R2
        MOVS     R1,#+0
        MOV      R0,R5
          CFI FunCall _ZN6U8GLIB11setPrintPosEhh
        BL       _ZN6U8GLIB11setPrintPosEhh
//  709 		lcd_print(buffer);
        ADD      R0,SP,#+32
          CFI FunCall _Z9lcd_printPKc
        BL       _Z9lcd_printPKc
//  710 		u8g.setPrintPos(0, u8g.getHeight()/5*3);
        MOV      R0,R5
          CFI FunCall _ZN6U8GLIB9getHeightEv
        BL       _ZN6U8GLIB9getHeightEv
        MOVS     R1,#+5
        SDIV     R2,R0,R1
        ADD      R2,R2,R2, LSL #+1
        UXTB     R2,R2
        MOVS     R1,#+0
        MOV      R0,R5
          CFI FunCall _ZN6U8GLIB11setPrintPosEhh
        BL       _ZN6U8GLIB11setPrintPosEhh
//  711 		lcd_print(endstop);
        MOV      R0,SP
          CFI FunCall _Z9lcd_printPKc
        BL       _Z9lcd_printPKc
//  712 
//  713 		if(mksEndStopsCnt)
        LDRSB    R0,[R4, #+0]
        CMP      R0,#+0
        BEQ.N    ??test_screen_9
//  714 		{
//  715 		u8g.setPrintPos(0, u8g.getHeight()/5*4);
        MOV      R0,R5
          CFI FunCall _ZN6U8GLIB9getHeightEv
        BL       _ZN6U8GLIB9getHeightEv
        MOVS     R1,#+5
        SDIV     R0,R0,R1
        LSLS     R2,R0,#+2
        UXTB     R2,R2
        MOVS     R1,#+0
        MOV      R0,R5
          CFI FunCall _ZN6U8GLIB11setPrintPosEhh
        BL       _ZN6U8GLIB11setPrintPosEhh
//  716 		lcd_print("Err pins:");
        ADR.W    R0,?_12
          CFI FunCall _Z9lcd_printPKc
        BL       _Z9lcd_printPKc
//  717 		u8g.setPrintPos(0, u8g.getHeight()/5*5);
        MOV      R0,R5
          CFI FunCall _ZN6U8GLIB9getHeightEv
        BL       _ZN6U8GLIB9getHeightEv
        MOVS     R1,#+5
        SDIV     R2,R0,R1
        ADD      R2,R2,R2, LSL #+2
        UXTB     R2,R2
        MOVS     R1,#+0
        MOV      R0,R5
          CFI FunCall _ZN6U8GLIB11setPrintPosEhh
        BL       _ZN6U8GLIB11setPrintPosEhh
//  718 		lcd_print(mksEndStopsBuf);
        LDR.W    R0,??DataTable134
          CFI FunCall _Z9lcd_printPKc
        BL       _Z9lcd_printPKc
//  719 		}
//  720 		
//  721 
//  722 	} while (u8g.nextPage());
??test_screen_9:
        MOV      R0,R5
          CFI FunCall _ZN6U8GLIB8nextPageEv
        BL       _ZN6U8GLIB8nextPageEv
        CMP      R0,#+0
        BNE.N    ??test_screen_8
//  723 	
//  724 }
        ADD      SP,SP,#+84
          CFI CFA R13+12
        POP      {R4,R5,PC}       ;; return
          CFI EndBlock cfiBlock24

        SECTION `.text`:CODE:NOROOT(2)
        SECTION_TYPE SHT_PROGBITS, 0
        DATA
?_11:
        DC8 "mksRobinLite"
        DC8 0, 0, 0

        SECTION `.text`:CODE:NOROOT(2)
        SECTION_TYPE SHT_PROGBITS, 0
        DATA
?_12:
        DC8 "Err pins:"
        DC8 0, 0
//  725 

        SECTION `.text`:CODE:NOROOT(1)
          CFI Block cfiBlock25 Using cfiCommon0
          CFI Function _Z18lcd_Init_MINI12864v
        THUMB
//  726 void lcd_Init_MINI12864() 	/*--mks--*/
//  727 {
//  728 	u8g.u8gInit_MINI12864();
_Z18lcd_Init_MINI12864v:
        LDR.W    R0,??DataTable126
          CFI FunCall _ZN6U8GLIB17u8gInit_MINI12864Ev
        B.W      _ZN6U8GLIB17u8gInit_MINI12864Ev
//  729 }
          CFI EndBlock cfiBlock25
//  730 

        SECTION `.text`:CODE:NOROOT(1)
          CFI Block cfiBlock26 Using cfiCommon0
          CFI Function _Z17lcd_Init_LCD12864v
        THUMB
//  731 void lcd_Init_LCD12864() 	/*--mks--*/
//  732 {
//  733 	u8g.u8gInit_LCD12864();
_Z17lcd_Init_LCD12864v:
        LDR.W    R0,??DataTable126
          CFI FunCall _ZN6U8GLIB16u8gInit_LCD12864Ev
        B.W      _ZN6U8GLIB16u8gInit_LCD12864Ev
//  734 }
          CFI EndBlock cfiBlock26
//  735 

        SECTION `.text`:CODE:NOROOT(1)
          CFI Block cfiBlock27 Using cfiCommon0
          CFI Function _Z18lcd_Init_OLED12864v
        THUMB
//  736 void lcd_Init_OLED12864() 	/*--mks--*/
//  737 {
//  738 	u8g.u8gInit_OLED12864();
_Z18lcd_Init_OLED12864v:
        LDR.W    R0,??DataTable126
          CFI FunCall _ZN6U8GLIB17u8gInit_OLED12864Ev
        B.W      _ZN6U8GLIB17u8gInit_OLED12864Ev
//  739 }
          CFI EndBlock cfiBlock27
//  740 
//  741 #if ENABLED(ULTIPANEL)
//  742 
//  743   /**
//  744    *
//  745    * Audio feedback for controller clicks
//  746    *
//  747    */

        SECTION `.text`:CODE:NOROOT(1)
          CFI Block cfiBlock28 Using cfiCommon0
          CFI Function _Z8lcd_buzzlt
        THUMB
//  748   void lcd_buzz(long duration, uint16_t freq) {
_Z8lcd_buzzlt:
        PUSH     {R0,R1,LR}
          CFI R14 Frame(CFA, -4)
          CFI CFA R13+12
        SUB      SP,SP,#+4
          CFI CFA R13+16
//  749     #if ENABLED(LCD_USE_I2C_BUZZER)
//  750       lcd.buzz(duration, freq);
//  751     #elif PIN_EXISTS(BEEPER)
//  752       buzzer.tone(duration, freq);
        STRH     R0,[SP, #+0]
        ADD      R2,SP,#+8
        MOV      R1,SP
        LDR.W    R0,??DataTable135
          CFI FunCall _ZN6Buzzer4toneERKtS1_
        BL       _ZN6Buzzer4toneERKtS1_
//  753 	
//  754     #else
//  755       UNUSED(duration); UNUSED(freq);
//  756     #endif
//  757   }
        POP      {R0-R2,PC}       ;; return
          CFI EndBlock cfiBlock28
//  758 

        SECTION `.text`:CODE:NOROOT(1)
          CFI Block cfiBlock29 Using cfiCommon0
          CFI Function _Z18lcd_quick_feedbackv
        THUMB
//  759   void lcd_quick_feedback() {
_Z18lcd_quick_feedbackv:
        PUSH     {R4,LR}
          CFI R14 Frame(CFA, -4)
          CFI R4 Frame(CFA, -8)
          CFI CFA R13+8
//  760     lcdDrawUpdate = LCDVIEW_CLEAR_CALL_REDRAW;
        LDR.N    R4,??DataTable117_2
        MOVS     R0,#+3
        STRB     R0,[R4, #+2]
//  761     buttons = 0;
        MOVS     R0,#+0
        STRB     R0,[R4, #+13]
//  762     next_button_update_ms = millis() + 500;
          CFI FunCall HAL_GetTick
        BL       HAL_GetTick
        ADD      R0,R0,#+500
        STR      R0,[R4, #+80]
//  763 
//  764     // Buzz and wait. The delay is needed for buttons to settle!
//  765     lcd_buzz(LCD_FEEDBACK_FREQUENCY_DURATION_MS, LCD_FEEDBACK_FREQUENCY_HZ);	/*--mks--*/
        MOVW     R1,#+5000
        MOVS     R0,#+2
          CFI FunCall _Z8lcd_buzzlt
        BL       _Z8lcd_buzzlt
//  766     #if ENABLED(LCD_USE_I2C_BUZZER)
//  767       delay(10);
//  768     #elif PIN_EXISTS(BEEPER)
//  769       for (int8_t i = 5; i--;) { buzzer.tick(); delay(2); }
        MOVS     R4,#+5
        B.N      ??lcd_quick_feedback_0
??lcd_quick_feedback_1:
        LDR.W    R0,??DataTable135
          CFI FunCall _ZN6Buzzer4tickEv
        BL       _ZN6Buzzer4tickEv
        MOVS     R0,#+2
          CFI FunCall HAL_Delay
        BL       HAL_Delay
??lcd_quick_feedback_0:
        MOV      R0,R4
        SUBS     R4,R0,#+1
        SXTB     R0,R0
        CMP      R0,#+0
        BNE.N    ??lcd_quick_feedback_1
//  770 
//  771 	#endif
//  772   }
        POP      {R4,PC}          ;; return
          CFI EndBlock cfiBlock29
//  773 

        SECTION `.text`:CODE:NOROOT(1)
          CFI Block cfiBlock30 Using cfiCommon0
          CFI Function _Z23lcd_completion_feedbackb
        THUMB
//  774   void lcd_completion_feedback(const bool good/*=true*/) {
_Z23lcd_completion_feedbackb:
        PUSH     {R7,LR}
          CFI R14 Frame(CFA, -4)
          CFI CFA R13+8
//  775     if (good) {
        CMP      R0,#+0
        BEQ.N    ??lcd_completion_feedback_0
//  776       lcd_buzz(100, 659);
        MOVW     R1,#+659
        MOVS     R0,#+100
          CFI FunCall _Z8lcd_buzzlt
        BL       _Z8lcd_buzzlt
//  777       lcd_buzz(100, 698);
        MOVW     R1,#+698
        MOVS     R0,#+100
        POP      {R2,LR}
          CFI R14 SameValue
          CFI CFA R13+0
          CFI FunCall _Z8lcd_buzzlt
        B.N      _Z8lcd_buzzlt
          CFI R14 Frame(CFA, -4)
          CFI CFA R13+8
//  778     }
//  779     else lcd_buzz(20, 440);
??lcd_completion_feedback_0:
        MOV      R1,#+440
        MOVS     R0,#+20
        POP      {R2,LR}
          CFI R14 SameValue
          CFI CFA R13+0
          CFI FunCall _Z8lcd_buzzlt
        B.N      _Z8lcd_buzzlt
//  780 
//  781 	
//  782   }
          CFI EndBlock cfiBlock30
//  783 
//  784   inline void line_to_current(AxisEnum axis) {
//  785     planner.buffer_line_kinematic(current_position, MMM_TO_MMS(manual_feedrate_mm_m[axis]), active_extruder);
//  786   }
//  787 
//  788   #if ENABLED(SDSUPPORT)
//  789 

        SECTION `.text`:CODE:NOROOT(1)
          CFI Block cfiBlock31 Using cfiCommon0
          CFI Function _Z16lcd_sdcard_pausev
        THUMB
//  790     void lcd_sdcard_pause() {
_Z16lcd_sdcard_pausev:
        PUSH     {R4,LR}
          CFI R14 Frame(CFA, -4)
          CFI R4 Frame(CFA, -8)
          CFI CFA R13+8
//  791 
//  792 	if(mksReprint.mks_printer_state == MKS_REPRINTED)	return;
        LDR.W    R4,??DataTable134_1
        LDRB     R0,[R4, #+104]
        CMP      R0,#+171
        BEQ.N    ??lcd_sdcard_pause_0
//  793 	
//  794       card.pauseSDPrint();
        LDR.N    R0,??DataTable117_4
          CFI FunCall _ZN10CardReader12pauseSDPrintEv
        BL       _ZN10CardReader12pauseSDPrintEv
//  795       print_job_timer.pause();
        LDR.N    R0,??DataTable117_7
          CFI FunCall _ZN9Stopwatch5pauseEv
        BL       _ZN9Stopwatch5pauseEv
//  796       #if ENABLED(PARK_HEAD_ON_PAUSE)
//  797         enqueue_and_echo_commands_P(PSTR("M125"));
//  798       #endif
//  799 
//  800 	  /*-----------pause begin---------------*/   
//  801 		//stepper.waitUntilEndOfAllBuffers();
//  802 		mksReprint.mks_printer_state = MKS_PAUSING;
        MOVS     R0,#+168
        STRB     R0,[R4, #+104]
//  803 	  /*-----------pause end-----------------*/   
//  804 	  
//  805     }
??lcd_sdcard_pause_0:
        POP      {R4,PC}          ;; return
          CFI EndBlock cfiBlock31

        SECTION `.text`:CODE:NOROOT(2)
        SECTION_TYPE SHT_PROGBITS, 0
        DATA
??DataTable115:
        DC32     lcd_status_message_level+0x4
//  806 

        SECTION `.text`:CODE:NOROOT(1)
          CFI Block cfiBlock32 Using cfiCommon0
          CFI Function _Z17lcd_sdcard_resumev
        THUMB
//  807     void lcd_sdcard_resume() {
_Z17lcd_sdcard_resumev:
        PUSH     {R7,LR}
          CFI R14 Frame(CFA, -4)
          CFI CFA R13+8
//  808 
//  809 		mks_resumePrint();
          CFI FunCall mks_resumePrint
        BL       mks_resumePrint
//  810                 
//  811 
//  812       #if ENABLED(PARK_HEAD_ON_PAUSE)
//  813         enqueue_and_echo_commands_P(PSTR("M24"));
//  814       #else
//  815 	  if(mksReprint.mks_printer_state != MKS_REPRINTING && mksReprint.mks_printer_state != MKS_REPRINTED)
        LDR.W    R0,??DataTable134_1
        LDRB     R0,[R0, #+104]
        CMP      R0,#+170
        BEQ.N    ??lcd_sdcard_resume_0
        CMP      R0,#+171
        BEQ.N    ??lcd_sdcard_resume_0
//  816 	  	{
//  817         card.startFileprint();
        LDR.N    R0,??DataTable117_4
          CFI FunCall _ZN10CardReader14startFileprintEv
        BL       _ZN10CardReader14startFileprintEv
//  818         print_job_timer.start();
        LDR.N    R0,??DataTable117_7
        POP      {R1,LR}
          CFI R14 SameValue
          CFI CFA R13+0
          CFI FunCall _ZN9Stopwatch5startEv
        B.W      _ZN9Stopwatch5startEv
          CFI R14 Frame(CFA, -4)
          CFI CFA R13+8
//  819 	  	}
//  820       #endif
//  821 
//  822     }
??lcd_sdcard_resume_0:
        POP      {R0,PC}          ;; return
          CFI EndBlock cfiBlock32

        SECTION `.text`:CODE:NOROOT(2)
        SECTION_TYPE SHT_PROGBITS, 0
        DATA
??DataTable116:
        DC8      0x25, 0x64, 0x00, 0x00

        SECTION `.text`:CODE:NOROOT(2)
        SECTION_TYPE SHT_PROGBITS, 0
        DATA
??DataTable116_1:
        DC8      "err"

        SECTION `.text`:CODE:NOROOT(2)
        SECTION_TYPE SHT_PROGBITS, 0
        DATA
??DataTable116_2:
        DC32     MSG_HALTED

        SECTION `.text`:CODE:NOROOT(2)
        SECTION_TYPE SHT_PROGBITS, 0
        DATA
??DataTable116_3:
        DC32     fanSpeeds
//  823 

        SECTION `.text`:CODE:NOROOT(1)
          CFI Block cfiBlock33 Using cfiCommon0
          CFI Function _Z15lcd_sdcard_stopv
        THUMB
//  824     void lcd_sdcard_stop() {
_Z15lcd_sdcard_stopv:
        LDR.W    R0,??DataTable134_1
        LDRB     R1,[R0, #+104]
        CMP      R1,#+171
        BNE.N    ??lcd_sdcard_stop_0
        BX       LR
??lcd_sdcard_stop_0:
        PUSH     {R7,LR}
          CFI R14 Frame(CFA, -4)
          CFI CFA R13+8
//  825 	if(mksReprint.mks_printer_state == MKS_REPRINTED)	
//  826           return;
//  827 
//  828 	  mksReprint.mks_printer_state = MKS_IDLE;
        MOVS     R1,#+166
        STRB     R1,[R0, #+104]
//  829 	  epr_write_data(EPR_SAV_FLAG, (uint8_t *)&mksReprint.mks_printer_state,sizeof(mksReprint.mks_printer_state));
        MOVS     R2,#+1
        ADD      R1,R0,#+104
        MOV      R0,#+1400
          CFI FunCall epr_write_data
        BL       epr_write_data
//  830 		
//  831       card.stopSDPrint();
        LDR.N    R0,??DataTable117_4
          CFI FunCall _ZN10CardReader11stopSDPrintEv
        BL       _ZN10CardReader11stopSDPrintEv
//  832       clear_command_queue();
          CFI FunCall _Z19clear_command_queuev
        BL       _Z19clear_command_queuev
//  833       quickstop_stepper();
          CFI FunCall _Z17quickstop_stepperv
        BL       _Z17quickstop_stepperv
//  834       print_job_timer.stop();
        LDR.N    R0,??DataTable117_7
          CFI FunCall _ZN9Stopwatch4stopEv
        BL       _ZN9Stopwatch4stopEv
//  835       thermalManager.disable_all_heaters();
          CFI FunCall _ZN11Temperature19disable_all_heatersEv
        BL       _ZN11Temperature19disable_all_heatersEv
//  836       #if FAN_COUNT > 0
//  837         for (uint8_t i = 0; i < FAN_COUNT; i++) fanSpeeds[i] = 0;
        MOVS     R0,#+0
        LDR.W    R1,??DataTable134_2
        B.N      ??lcd_sdcard_stop_1
??lcd_sdcard_stop_2:
        MOVS     R0,#+0
        STR      R0,[R1, #+0]
        MOVS     R0,#+1
??lcd_sdcard_stop_1:
        CMP      R0,#+0
        BEQ.N    ??lcd_sdcard_stop_2
//  838 	TIM1->CCR1 = 0 ;
        MOVS     R0,#+0
        LDR.W    R1,??DataTable134_3  ;; 0x40012c34
        STR      R0,[R1, #+0]
//  839       #endif
//  840       wait_for_heatup = false;
        LDR.W    R1,??DataTable134_4
        STRB     R0,[R1, #+0]
//  841       LCD_MESSAGEPGM(MSG_PRINT_ABORTED);
        MOV      R1,R0
        LDR.W    R0,??DataTable135_1
        POP      {R2,LR}
          CFI R14 SameValue
          CFI CFA R13+0
          CFI FunCall _Z16lcd_setstatuspgmPKch
        B.W      _Z16lcd_setstatuspgmPKch
//  842     }
          CFI EndBlock cfiBlock33

        SECTION `.text`:CODE:NOROOT(2)
        SECTION_TYPE SHT_PROGBITS, 0
        DATA
??DataTable117:
        DC8      "ok "

        SECTION `.text`:CODE:NOROOT(2)
        SECTION_TYPE SHT_PROGBITS, 0
        DATA
??DataTable117_1:
        DC32     MSG_PLEASE_RESET

        SECTION `.text`:CODE:NOROOT(2)
        SECTION_TYPE SHT_PROGBITS, 0
        DATA
??DataTable117_2:
        DC32     row_y1

        SECTION `.text`:CODE:NOROOT(2)
        SECTION_TYPE SHT_PROGBITS, 0
        DATA
??DataTable117_3:
        DC32     mksCfg

        SECTION `.text`:CODE:NOROOT(2)
        SECTION_TYPE SHT_PROGBITS, 0
        DATA
??DataTable117_4:
        DC32     card

        SECTION `.text`:CODE:NOROOT(2)
        SECTION_TYPE SHT_PROGBITS, 0
        DATA
??DataTable117_5:
        DC32     0x47ae147b

        SECTION `.text`:CODE:NOROOT(2)
        SECTION_TYPE SHT_PROGBITS, 0
        DATA
??DataTable117_6:
        DC32     0x3f847ae1

        SECTION `.text`:CODE:NOROOT(2)
        SECTION_TYPE SHT_PROGBITS, 0
        DATA
??DataTable117_7:
        DC32     print_job_timer

        SECTION `.text`:CODE:NOROOT(2)
        SECTION_TYPE SHT_PROGBITS, 0
        DATA
??DataTable117_8:
        DC32     0x15181

        SECTION `.text`:CODE:NOROOT(2)
        SECTION_TYPE SHT_PROGBITS, 0
        DATA
??DataTable117_9:
        DC32     current_position

        SECTION `.text`:CODE:NOROOT(2)
        SECTION_TYPE SHT_PROGBITS, 0
        DATA
??DataTable117_10:
        DC32     0x88e368f1

        SECTION `.text`:CODE:NOROOT(2)
        SECTION_TYPE SHT_PROGBITS, 0
        DATA
??DataTable117_11:
        DC32     0x3ee4f8b5
//  843 
//  844   #endif // SDSUPPORT
//  845 
//  846   #if ENABLED(MENU_ITEM_CASE_LIGHT)
//  847 
//  848     extern bool case_light_on;
//  849     extern void update_case_light();
//  850 
//  851     void toggle_case_light() {
//  852       case_light_on ^= true;
//  853       lcdDrawUpdate = LCDVIEW_CALL_REDRAW_NEXT;
//  854       update_case_light();
//  855     }
//  856 
//  857   #endif // MENU_ITEM_CASE_LIGHT
//  858 
//  859   #if ENABLED(BLTOUCH)
//  860 
//  861     /**
//  862      *
//  863      * "BLTouch" submenu
//  864      *
//  865      */
//  866     static void bltouch_menu() {
//  867       START_MENU();
//  868       //
//  869       // ^ Main
//  870       //
//  871       MENU_BACK(MSG_MAIN);
//  872       MENU_ITEM(gcode, MSG_BLTOUCH_RESET, PSTR("M280 P" STRINGIFY(Z_ENDSTOP_SERVO_NR) " S" STRINGIFY(BLTOUCH_RESET)));
//  873       MENU_ITEM(gcode, MSG_BLTOUCH_SELFTEST, PSTR("M280 P" STRINGIFY(Z_ENDSTOP_SERVO_NR) " S" STRINGIFY(BLTOUCH_SELFTEST)));
//  874       MENU_ITEM(gcode, MSG_BLTOUCH_DEPLOY, PSTR("M280 P" STRINGIFY(Z_ENDSTOP_SERVO_NR) " S" STRINGIFY(BLTOUCH_DEPLOY)));
//  875       MENU_ITEM(gcode, MSG_BLTOUCH_STOW, PSTR("M280 P" STRINGIFY(Z_ENDSTOP_SERVO_NR) " S" STRINGIFY(BLTOUCH_STOW)));
//  876       END_MENU();
//  877     }
//  878 
//  879   #endif // BLTOUCH
//  880 
//  881   #if ENABLED(LCD_PROGRESS_BAR_TEST)
//  882 
//  883     static void progress_bar_test() {
//  884       static int8_t bar_percent = 0;
//  885       if (lcd_clicked) {
//  886         lcd_goto_previous_menu();
//  887         lcd_set_custom_characters(false);
//  888         return;
//  889       }
//  890       bar_percent += (int8_t)encoderPosition;
//  891       bar_percent = constrain(bar_percent, 0, 100);
//  892       encoderPosition = 0;
//  893       lcd_implementation_drawmenu_static(0, PSTR(MSG_PROGRESS_BAR_TEST), true, true);
//  894       lcd.setCursor((LCD_WIDTH) / 2 - 2, LCD_HEIGHT - 2);
//  895       lcd.print(itostr3(bar_percent)); lcd.print('%');
//  896       lcd.setCursor(0, LCD_HEIGHT - 1); lcd_draw_progress_bar(bar_percent);
//  897     }
//  898 
//  899     void _progress_bar_test() {
//  900       lcd_goto_screen(progress_bar_test);
//  901       lcd_set_custom_characters();
//  902     }
//  903 
//  904   #endif // LCD_PROGRESS_BAR_TEST
//  905 
//  906   #if HAS_DEBUG_MENU
//  907 
//  908     void lcd_debug_menu() {
//  909       START_MENU();
//  910 
//  911       MENU_BACK(MSG_MAIN); // ^ Main
//  912 
//  913       #if ENABLED(LCD_PROGRESS_BAR_TEST)
//  914         MENU_ITEM(submenu, MSG_PROGRESS_BAR_TEST, _progress_bar_test);
//  915       #endif
//  916 
//  917       END_MENU();
//  918     }
//  919 
//  920   #endif // HAS_DEBUG_MENU
//  921 
//  922   /**
//  923    *
//  924    * "Main" menu
//  925    *
//  926    */
//  927 

        SECTION `.text`:CODE:NOROOT(1)
          CFI Block cfiBlock34 Using cfiCommon0
          CFI Function _Z13lcd_main_menuv
        THUMB
//  928   void lcd_main_menu() {
_Z13lcd_main_menuv:
        PUSH     {R3-R9,LR}
          CFI R14 Frame(CFA, -4)
          CFI R9 Frame(CFA, -8)
          CFI R8 Frame(CFA, -12)
          CFI R7 Frame(CFA, -16)
          CFI R6 Frame(CFA, -20)
          CFI R5 Frame(CFA, -24)
          CFI R4 Frame(CFA, -28)
          CFI CFA R13+32
//  929     START_MENU();
        LDR.W    R6,??DataTable134_5
        MOVS     R0,#+0
        STRB     R0,[R6, #+9]
        LDR      R0,[R6, #+72]
        MOVW     R1,#+32769
        CMP      R0,R1
        BCC.N    ??lcd_main_menu_0
        MOVS     R0,#+0
        STR      R0,[R6, #+72]
??lcd_main_menu_0:
        LDRSB    R4,[R6, #+72]
        LDRSB    R0,[R6, #+19]
        MOV      R1,R0
        CMP      R1,#+0
        BLE.N    ??lcd_main_menu_1
        SUBS     R1,R1,#+1
        CMP      R4,R1
        BLT.N    ??lcd_main_menu_1
        CMP      R1,#+0
        BPL.N    ??lcd_main_menu_2
        MOVS     R4,#+0
        B.N      ??lcd_main_menu_3
??lcd_main_menu_2:
        SUBS     R4,R0,#+1
        SXTB     R4,R4
??lcd_main_menu_3:
        STR      R4,[R6, #+72]
??lcd_main_menu_1:
        MOVS     R0,#+0
        STRB     R0,[R6, #+16]
        LDRSB    R0,[R6, #+14]
        CMP      R4,R0
        BGE.N    ??lcd_main_menu_4
        STRB     R4,[R6, #+14]
??lcd_main_menu_4:
        LDRSB    R0,[R6, #+14]
        ADDS     R0,R0,#+4
        CMP      R4,R0
        BLT.N    ??lcd_main_menu_5
        MOV      R0,R4
        SUBS     R0,R0,#+3
        STRB     R0,[R6, #+14]
??lcd_main_menu_5:
        LDRSB    R5,[R6, #+14]
        MOV      R8,#+0
        LDR.W    R9,??DataTable135_2
        B.N      ??lcd_main_menu_6
//  930     MENU_BACK(MSG_WATCH);
//  931 
//  932     //
//  933     // Debug Menu when certain options are enabled
//  934     //
//  935     #if HAS_DEBUG_MENU
//  936       MENU_ITEM(submenu, MSG_DEBUG_MENU, lcd_debug_menu);
//  937     #endif
//  938 
//  939     //
//  940     // Switch case light on/off
//  941     //
//  942     #if ENABLED(MENU_ITEM_CASE_LIGHT)
//  943       if (case_light_on)
//  944         MENU_ITEM(function, MSG_LIGHTS_OFF, toggle_case_light);
//  945       else
//  946         MENU_ITEM(function, MSG_LIGHTS_ON, toggle_case_light);
//  947     #endif
//  948 
//  949     #if ENABLED(BLTOUCH)
//  950       MENU_ITEM(submenu, MSG_BLTOUCH, bltouch_menu);
//  951     #endif
//  952 #if 0
//  953     if (planner.movesplanned() || IS_SD_PRINTING) {
//  954       MENU_ITEM(submenu, MSG_TUNE, lcd_tune_menu);
//  955     }
//  956     else {
//  957       MENU_ITEM(submenu, MSG_PREPARE, lcd_prepare_menu);
//  958       #if ENABLED(DELTA_CALIBRATION_MENU)
//  959         MENU_ITEM(submenu, MSG_DELTA_CALIBRATE, lcd_delta_calibrate_menu);
//  960       #endif
//  961     }
//  962 	#endif
//  963 	MENU_ITEM(submenu, MSG_PREPARE, lcd_prepare_menu);
//  964 	#if 0
//  965             MENU_ITEM(submenu, MSG_CONTROL, lcd_control_menu);
//  966 	#endif
//  967 
//  968     #if ENABLED(SDSUPPORT)
//  969       if (card.cardOK) {
//  970         if (card.isFileOpen()) {
//  971 			
//  972           if (card.sdprinting)
//  973           //if (card.sdprinting || planner.blocks_queued())
//  974             MENU_ITEM(function, MSG_PAUSE_PRINT, lcd_sdcard_pause);
//  975           else
//  976             MENU_ITEM(function, MSG_RESUME_PRINT, lcd_sdcard_resume);
//  977 		  
//  978           MENU_ITEM(function, MSG_STOP_PRINT, lcd_sdcard_stop);
//  979         }
//  980         else {
//  981           MENU_ITEM(submenu, MSG_CARD_MENU, lcd_sdcard_menu);
//  982           #if !PIN_EXISTS(SD_DETECT)
//  983             MENU_ITEM(gcode, MSG_CNG_SDCARD, PSTR("M21"));  // SD-card changed by user
//  984           #endif
//  985         }
//  986       }
//  987       else {
//  988         MENU_ITEM(submenu, MSG_NO_CARD, lcd_sdcard_menu);
??lcd_main_menu_7:
        ADDS     R7,R7,#+1
//  989         #if !PIN_EXISTS(SD_DETECT)
//  990           MENU_ITEM(gcode, MSG_INIT_SDCARD, PSTR("M21")); // Manually initialize the SD-card via user interface
//  991         #endif
//  992       }
//  993     #endif //SDSUPPORT
//  994 
//  995 #ifdef USE_MKS_WIFI 
//  996 		MENU_ITEM(submenu, MSG_WIFI_INFO, lcd_wifi_info);
        CMP      R5,R7
        BNE.N    ??lcd_main_menu_8
        LDRB     R0,[R6, #+2]
        CMP      R0,#+0
        BEQ.N    ??lcd_main_menu_9
        CMP      R4,R7
        BNE.W    ??lcd_main_menu_10
        MOVS     R0,#+1
??lcd_main_menu_11:
        MOVS     R1,#+3
        STR      R1,[SP, #+0]
        MOVS     R3,#+62
        LDR.W    R2,??DataTable135_3
        MOV      R1,R8
        UXTB     R1,R1
          CFI FunCall _ZN34_INTERNAL_12_ultralcd_cpp_6629db9235lcd_implementation_drawmenu_genericEbhPKccc
        BL       _ZN34_INTERNAL_12_ultralcd_cpp_6629db9235lcd_implementation_drawmenu_genericEbhPKccc
??lcd_main_menu_9:
        LDRB     R0,[R6, #+11]
        CMP      R0,#+0
        BEQ.N    ??lcd_main_menu_8
        CMP      R4,R7
        BNE.N    ??lcd_main_menu_8
        LDR.W    R0,??DataTable135_4
          CFI FunCall _Z19menu_action_submenuPFvvE
        BL       _Z19menu_action_submenuPFvvE
        LDRB     R0,[R6, #+16]
        CMP      R0,#+0
        BNE.W    ??lcd_main_menu_12
??lcd_main_menu_8:
        ADDS     R7,R7,#+1
//  997 #endif
//  998 
//  999 
// 1000     #if ENABLED(LCD_INFO_MENU)
// 1001       MENU_ITEM(submenu, MSG_INFO_MENU, lcd_info_menu);
        CMP      R5,R7
        BNE.N    ??lcd_main_menu_13
        LDRB     R0,[R6, #+2]
        CMP      R0,#+0
        BEQ.N    ??lcd_main_menu_14
        CMP      R4,R7
        BNE.W    ??lcd_main_menu_15
        MOVS     R0,#+1
??lcd_main_menu_16:
        MOVS     R1,#+3
        STR      R1,[SP, #+0]
        MOVS     R3,#+62
        LDR.W    R2,??DataTable135_5
        MOV      R1,R8
        UXTB     R1,R1
          CFI FunCall _ZN34_INTERNAL_12_ultralcd_cpp_6629db9235lcd_implementation_drawmenu_genericEbhPKccc
        BL       _ZN34_INTERNAL_12_ultralcd_cpp_6629db9235lcd_implementation_drawmenu_genericEbhPKccc
??lcd_main_menu_14:
        LDRB     R0,[R6, #+11]
        CMP      R0,#+0
        BEQ.N    ??lcd_main_menu_13
        CMP      R4,R7
        BNE.N    ??lcd_main_menu_13
        LDR.W    R0,??DataTable135_6
          CFI FunCall _Z19menu_action_submenuPFvvE
        BL       _Z19menu_action_submenuPFvvE
        LDRB     R0,[R6, #+16]
        CMP      R0,#+0
        BNE.W    ??lcd_main_menu_12
??lcd_main_menu_13:
        ADDS     R7,R7,#+1
        ADD      R8,R8,#+1
        SXTB     R8,R8
        ADDS     R5,R5,#+1
        SXTB     R5,R5
??lcd_main_menu_6:
        CMP      R8,#+3
        BGT.W    ??lcd_main_menu_17
        CMP      R5,#+0
        BNE.N    ??lcd_main_menu_18
        LDRB     R0,[R6, #+2]
        CMP      R0,#+0
        BEQ.N    ??lcd_main_menu_19
        MOV      R0,R4
        SUBS     R0,R0,#+1
        SBCS     R0,R0,R0
        LSRS     R0,R0,#+31
        MOVS     R1,#+4
        STR      R1,[SP, #+0]
        MOV      R3,R1
        LDR.W    R2,??DataTable135_7
        MOV      R1,R8
        UXTB     R1,R1
          CFI FunCall _ZN34_INTERNAL_12_ultralcd_cpp_6629db9235lcd_implementation_drawmenu_genericEbhPKccc
        BL       _ZN34_INTERNAL_12_ultralcd_cpp_6629db9235lcd_implementation_drawmenu_genericEbhPKccc
??lcd_main_menu_19:
        LDRB     R0,[R6, #+11]
        CMP      R0,#+0
        BEQ.N    ??lcd_main_menu_18
        CMP      R4,#+0
        BNE.N    ??lcd_main_menu_18
          CFI FunCall _Z17_menu_action_backv
        BL       _Z17_menu_action_backv
        LDRB     R0,[R6, #+16]
        CMP      R0,#+0
        BNE.W    ??lcd_main_menu_12
??lcd_main_menu_18:
        CMP      R5,#+1
        BNE.N    ??lcd_main_menu_20
        LDRB     R0,[R6, #+2]
        CMP      R0,#+0
        BEQ.N    ??lcd_main_menu_21
        CMP      R4,#+1
        BNE.N    ??lcd_main_menu_22
        MOVS     R0,#+1
??lcd_main_menu_23:
        MOVS     R1,#+3
        STR      R1,[SP, #+0]
        MOVS     R3,#+62
        LDR.W    R2,??DataTable135_8
        MOV      R1,R8
        UXTB     R1,R1
          CFI FunCall _ZN34_INTERNAL_12_ultralcd_cpp_6629db9235lcd_implementation_drawmenu_genericEbhPKccc
        BL       _ZN34_INTERNAL_12_ultralcd_cpp_6629db9235lcd_implementation_drawmenu_genericEbhPKccc
??lcd_main_menu_21:
        LDRB     R0,[R6, #+11]
        CMP      R0,#+0
        BEQ.N    ??lcd_main_menu_20
        CMP      R4,#+1
        BNE.N    ??lcd_main_menu_20
        LDR.W    R0,??DataTable135_9
          CFI FunCall _Z19menu_action_submenuPFvvE
        BL       _Z19menu_action_submenuPFvvE
        LDRB     R0,[R6, #+16]
        CMP      R0,#+0
        BNE.W    ??lcd_main_menu_12
??lcd_main_menu_20:
        MOVS     R7,#+2
        LDRB     R0,[R9, #+3]
        CMP      R0,#+0
        BEQ.W    ??lcd_main_menu_24
        MOV      R0,R9
          CFI FunCall _ZN10CardReader10isFileOpenEv
        BL       _ZN10CardReader10isFileOpenEv
        CMP      R0,#+0
        BEQ.N    ??lcd_main_menu_25
        LDRB     R0,[R9, #+2]
        CMP      R0,#+0
        BEQ.N    ??lcd_main_menu_26
        CMP      R5,#+2
        BNE.N    ??lcd_main_menu_27
        LDRB     R0,[R6, #+2]
        CMP      R0,#+0
        BEQ.N    ??lcd_main_menu_28
        CMP      R4,#+2
        BNE.N    ??lcd_main_menu_29
        MOVS     R0,#+1
??lcd_main_menu_30:
        MOVS     R1,#+32
        STR      R1,[SP, #+0]
        MOVS     R3,#+62
        LDR.W    R2,??DataTable136
        MOV      R1,R8
        UXTB     R1,R1
          CFI FunCall _ZN34_INTERNAL_12_ultralcd_cpp_6629db9235lcd_implementation_drawmenu_genericEbhPKccc
        BL       _ZN34_INTERNAL_12_ultralcd_cpp_6629db9235lcd_implementation_drawmenu_genericEbhPKccc
??lcd_main_menu_28:
        LDRB     R0,[R6, #+11]
        CMP      R0,#+0
        BEQ.N    ??lcd_main_menu_27
        CMP      R4,#+2
        BNE.N    ??lcd_main_menu_27
        LDR.W    R0,??DataTable137
          CFI FunCall _Z20menu_action_functionPFvvE
        BL       _Z20menu_action_functionPFvvE
        LDRB     R0,[R6, #+16]
        CMP      R0,#+0
        BEQ.N    ??lcd_main_menu_27
        B.N      ??lcd_main_menu_12
??lcd_main_menu_22:
        MOVS     R0,#+0
        B.N      ??lcd_main_menu_23
??lcd_main_menu_29:
        MOVS     R0,#+0
        B.N      ??lcd_main_menu_30
??lcd_main_menu_26:
        CMP      R5,#+2
        BNE.N    ??lcd_main_menu_27
        LDRB     R0,[R6, #+2]
        CMP      R0,#+0
        BEQ.N    ??lcd_main_menu_31
        CMP      R4,#+2
        BNE.N    ??lcd_main_menu_32
        MOVS     R0,#+1
        B.N      ??lcd_main_menu_33
??lcd_main_menu_32:
        MOVS     R0,#+0
??lcd_main_menu_33:
        MOVS     R1,#+32
        STR      R1,[SP, #+0]
        MOVS     R3,#+62
        LDR.W    R2,??DataTable138
        MOV      R1,R8
        UXTB     R1,R1
          CFI FunCall _ZN34_INTERNAL_12_ultralcd_cpp_6629db9235lcd_implementation_drawmenu_genericEbhPKccc
        BL       _ZN34_INTERNAL_12_ultralcd_cpp_6629db9235lcd_implementation_drawmenu_genericEbhPKccc
??lcd_main_menu_31:
        LDRB     R0,[R6, #+11]
        CMP      R0,#+0
        BEQ.N    ??lcd_main_menu_27
        CMP      R4,#+2
        BNE.N    ??lcd_main_menu_27
        LDR.W    R0,??DataTable138_1
          CFI FunCall _Z20menu_action_functionPFvvE
        BL       _Z20menu_action_functionPFvvE
        LDRB     R0,[R6, #+16]
        CMP      R0,#+0
        BNE.N    ??lcd_main_menu_12
??lcd_main_menu_27:
        MOVS     R7,#+3
        CMP      R5,#+3
        BNE.W    ??lcd_main_menu_7
        LDRB     R0,[R6, #+2]
        CMP      R0,#+0
        BEQ.N    ??lcd_main_menu_34
        CMP      R4,#+3
        BNE.N    ??lcd_main_menu_35
        MOVS     R0,#+1
??lcd_main_menu_36:
        MOVS     R1,#+32
        STR      R1,[SP, #+0]
        MOVS     R3,#+62
        LDR.W    R2,??DataTable139
        MOV      R1,R8
        UXTB     R1,R1
          CFI FunCall _ZN34_INTERNAL_12_ultralcd_cpp_6629db9235lcd_implementation_drawmenu_genericEbhPKccc
        BL       _ZN34_INTERNAL_12_ultralcd_cpp_6629db9235lcd_implementation_drawmenu_genericEbhPKccc
??lcd_main_menu_34:
        LDRB     R0,[R6, #+11]
        CMP      R0,#+0
        BEQ.W    ??lcd_main_menu_7
        CMP      R4,#+3
        BNE.W    ??lcd_main_menu_7
        LDR.W    R0,??DataTable139_1
          CFI FunCall _Z20menu_action_functionPFvvE
        BL       _Z20menu_action_functionPFvvE
        LDRB     R0,[R6, #+16]
        CMP      R0,#+0
        BEQ.W    ??lcd_main_menu_7
        B.N      ??lcd_main_menu_12
??lcd_main_menu_35:
        MOVS     R0,#+0
        B.N      ??lcd_main_menu_36
??lcd_main_menu_25:
        CMP      R5,#+2
        BNE.W    ??lcd_main_menu_7
        LDRB     R0,[R6, #+2]
        CMP      R0,#+0
        BEQ.N    ??lcd_main_menu_37
        CMP      R4,#+2
        BNE.N    ??lcd_main_menu_38
        MOVS     R0,#+1
        B.N      ??lcd_main_menu_39
??lcd_main_menu_38:
        MOVS     R0,#+0
??lcd_main_menu_39:
        MOVS     R1,#+3
        STR      R1,[SP, #+0]
        MOVS     R3,#+62
        LDR.W    R2,??DataTable139_2
        MOV      R1,R8
        UXTB     R1,R1
          CFI FunCall _ZN34_INTERNAL_12_ultralcd_cpp_6629db9235lcd_implementation_drawmenu_genericEbhPKccc
        BL       _ZN34_INTERNAL_12_ultralcd_cpp_6629db9235lcd_implementation_drawmenu_genericEbhPKccc
??lcd_main_menu_37:
        LDRB     R0,[R6, #+11]
        CMP      R0,#+0
        BEQ.W    ??lcd_main_menu_7
        CMP      R4,#+2
        BNE.W    ??lcd_main_menu_7
        LDR.W    R0,??DataTable142
          CFI FunCall _Z19menu_action_submenuPFvvE
        BL       _Z19menu_action_submenuPFvvE
        LDRB     R0,[R6, #+16]
        CMP      R0,#+0
        BEQ.W    ??lcd_main_menu_7
        B.N      ??lcd_main_menu_12
??lcd_main_menu_24:
        CMP      R5,#+2
        BNE.W    ??lcd_main_menu_7
        LDRB     R0,[R6, #+2]
        CMP      R0,#+0
        BEQ.N    ??lcd_main_menu_40
        CMP      R4,#+2
        BNE.N    ??lcd_main_menu_41
        MOVS     R0,#+1
        B.N      ??lcd_main_menu_42
??lcd_main_menu_41:
        MOVS     R0,#+0
??lcd_main_menu_42:
        MOVS     R1,#+3
        STR      R1,[SP, #+0]
        MOVS     R3,#+62
        LDR.W    R2,??DataTable139_3
        MOV      R1,R8
        UXTB     R1,R1
          CFI FunCall _ZN34_INTERNAL_12_ultralcd_cpp_6629db9235lcd_implementation_drawmenu_genericEbhPKccc
        BL       _ZN34_INTERNAL_12_ultralcd_cpp_6629db9235lcd_implementation_drawmenu_genericEbhPKccc
??lcd_main_menu_40:
        LDRB     R0,[R6, #+11]
        CMP      R0,#+0
        BEQ.W    ??lcd_main_menu_7
        CMP      R4,#+2
        BNE.W    ??lcd_main_menu_7
        LDR.W    R0,??DataTable142
          CFI FunCall _Z19menu_action_submenuPFvvE
        BL       _Z19menu_action_submenuPFvvE
        LDRB     R0,[R6, #+16]
        CMP      R0,#+0
        BEQ.W    ??lcd_main_menu_7
        B.N      ??lcd_main_menu_12
// 1002     #endif
// 1003 
// 1004     END_MENU();
??lcd_main_menu_10:
        MOVS     R0,#+0
        B.N      ??lcd_main_menu_11
??lcd_main_menu_15:
        MOVS     R0,#+0
        B.N      ??lcd_main_menu_16
??lcd_main_menu_17:
        STRB     R7,[R6, #+19]
// 1005   }
??lcd_main_menu_12:
        POP      {R0,R4-R9,PC}    ;; return
          CFI EndBlock cfiBlock34
// 1006 
// 1007   /**
// 1008    *
// 1009    * "Tune" submenu items
// 1010    *
// 1011    */
// 1012 
// 1013   //#if HAS_M206_COMMAND	//mks_delta
// 1014   #if 1
// 1015     /**
// 1016      * Set the home offset based on the current_position
// 1017      */

        SECTION `.text`:CODE:NOROOT(1)
          CFI Block cfiBlock35 Using cfiCommon0
          CFI Function _Z20lcd_set_home_offsetsv
        THUMB
// 1018     void lcd_set_home_offsets() {
_Z20lcd_set_home_offsetsv:
        LDR.W    R0,??DataTable143
        LDRSH    R0,[R0, #+88]
        CMP      R0,#+2
        BNE.N    ??lcd_set_home_offsets_0
        BX       LR
??lcd_set_home_offsets_0:
        PUSH     {R7,LR}
          CFI R14 Frame(CFA, -4)
          CFI CFA R13+8
// 1019     if(MACHINETPYE == DELTA) return;
// 1020       // M428 Command
// 1021       enqueue_and_echo_commands_P(PSTR("M428"));
        ADR.W    R0,?_14
          CFI FunCall _Z27enqueue_and_echo_commands_PPKc
        BL       _Z27enqueue_and_echo_commands_PPKc
// 1022       lcd_return_to_status();
        POP      {R0,LR}
          CFI R14 SameValue
          CFI CFA R13+0
          CFI FunCall _Z20lcd_return_to_statusv
        B.N      _Z20lcd_return_to_statusv
// 1023     }
          CFI EndBlock cfiBlock35

        SECTION `.text`:CODE:NOROOT(2)
        SECTION_TYPE SHT_PROGBITS, 0
        DATA
??DataTable119:
        DC32     feedrate_percentage

        SECTION `.text`:CODE:NOROOT(2)
        SECTION_TYPE SHT_PROGBITS, 0
        DATA
?_14:
        DC8 "M428"
        DC8 0, 0, 0
// 1024   #endif
// 1025 
// 1026   #if ENABLED(BABYSTEPPING)
// 1027 
// 1028     void _lcd_babystep(const AxisEnum axis, const char* msg) {
// 1029       if (lcd_clicked) { defer_return_to_status = false; return lcd_goto_previous_menu(); }
// 1030       ENCODER_DIRECTION_NORMAL();
// 1031       if (encoderPosition) {
// 1032         const int babystep_increment = (int32_t)encoderPosition * (BABYSTEP_MULTIPLICATOR);
// 1033         encoderPosition = 0;
// 1034         lcdDrawUpdate = LCDVIEW_REDRAW_NOW;
// 1035         thermalManager.babystep_axis(axis, babystep_increment);
// 1036         babysteps_done += babystep_increment;
// 1037       }
// 1038       if (lcdDrawUpdate)
// 1039         lcd_implementation_drawedit(msg, ftostr43sign(planner.steps_to_mm[axis] * babysteps_done));
// 1040     }
// 1041 
// 1042     #if ENABLED(BABYSTEP_XY)
// 1043       void _lcd_babystep_x() { _lcd_babystep(X_AXIS, PSTR(MSG_BABYSTEPPING_X)); }
// 1044       void _lcd_babystep_y() { _lcd_babystep(Y_AXIS, PSTR(MSG_BABYSTEPPING_Y)); }
// 1045       void lcd_babystep_x() { lcd_goto_screen(_lcd_babystep_x); babysteps_done = 0; defer_return_to_status = true; }
// 1046       void lcd_babystep_y() { lcd_goto_screen(_lcd_babystep_y); babysteps_done = 0; defer_return_to_status = true; }
// 1047     #endif
// 1048 
// 1049     #if ENABLED(BABYSTEP_ZPROBE_OFFSET)
// 1050 
// 1051       void lcd_babystep_zoffset() {
// 1052         if (lcd_clicked) { defer_return_to_status = false; return lcd_goto_previous_menu(); }
// 1053         defer_return_to_status = true;
// 1054         ENCODER_DIRECTION_NORMAL();
// 1055         if (encoderPosition) {
// 1056           const int babystep_increment = (int32_t)encoderPosition * (BABYSTEP_MULTIPLICATOR);
// 1057           encoderPosition = 0;
// 1058 
// 1059           const float new_zoffset = zprobe_zoffset + planner.steps_to_mm[Z_AXIS] * babystep_increment;
// 1060           if (WITHIN(new_zoffset, Z_PROBE_OFFSET_RANGE_MIN, Z_PROBE_OFFSET_RANGE_MAX)) {
// 1061 
// 1062             if (planner.abl_enabled)
// 1063               thermalManager.babystep_axis(Z_AXIS, babystep_increment);
// 1064 
// 1065             zprobe_zoffset = new_zoffset;
// 1066             refresh_zprobe_zoffset(true);
// 1067             lcdDrawUpdate = LCDVIEW_REDRAW_NOW;
// 1068           }
// 1069         }
// 1070         if (lcdDrawUpdate)
// 1071           lcd_implementation_drawedit(PSTR(MSG_ZPROBE_ZOFFSET), ftostr43sign(zprobe_zoffset));
// 1072       }
// 1073 
// 1074     #else // !BABYSTEP_ZPROBE_OFFSET
// 1075 
// 1076       void _lcd_babystep_z() { _lcd_babystep(Z_AXIS, PSTR(MSG_BABYSTEPPING_Z)); }
// 1077       void lcd_babystep_z() { lcd_goto_screen(_lcd_babystep_z); babysteps_done = 0; defer_return_to_status = true; }
// 1078 
// 1079     #endif // !BABYSTEP_ZPROBE_OFFSET
// 1080 
// 1081   #endif // BABYSTEPPING
// 1082 
// 1083 //  #if ENABLED(AUTO_BED_LEVELING_UBL)
// 1084 #if 1

        SECTION `.bss`:DATA:REORDER:NOROOT(2)
        DATA
// 1085     float mesh_edit_value, mesh_edit_accumulator; // We round mesh_edit_value to 2.5 decimal places.  So we keep a
mesh_edit_value:
        DS8 4
mesh_edit_accumulator:
        DS8 4
        DS8 4
// 1086                                                   // seperate value that doesn't lose precision.
// 1087     static int ubl_encoderPosition = 0;
// 1088 

        SECTION `.text`:CODE:NOROOT(1)
          CFI Block cfiBlock36 Using cfiCommon0
          CFI Function _ZN34_INTERNAL_12_ultralcd_cpp_6629db9219_lcd_mesh_fine_tuneEPKc
        THUMB
// 1089     static void _lcd_mesh_fine_tune(const char* msg) {
_ZN34_INTERNAL_12_ultralcd_cpp_6629db9219_lcd_mesh_fine_tuneEPKc:
        PUSH     {R4-R6,R8,R9,LR}
          CFI R14 Frame(CFA, -4)
          CFI R9 Frame(CFA, -8)
          CFI R8 Frame(CFA, -12)
          CFI R6 Frame(CFA, -16)
          CFI R5 Frame(CFA, -20)
          CFI R4 Frame(CFA, -24)
          CFI CFA R13+24
        MOV      R4,R0
// 1090       defer_return_to_status = true;
        LDR.W    R5,??DataTable134_5
        MOVS     R0,#+1
        STRB     R0,[R5, #+17]
// 1091       if (ubl.encoder_diff) {
        LDR.W    R1,??DataTable139_4
        LDR      R0,[R1, #+0]
        CMP      R0,#+0
        BEQ.N    ??_lcd_mesh_fine_tune_0
// 1092         ubl_encoderPosition = (ubl.encoder_diff > 0) ? 1 : -1;
        LDR.W    R6,??DataTable141
        LDR      R0,[R1, #+0]
        CMP      R0,#+0
        BLE.N    ??_lcd_mesh_fine_tune_1
        MOVS     R0,#+1
        STR      R0,[R6, #+8]
        B.N      ??_lcd_mesh_fine_tune_2
??_lcd_mesh_fine_tune_1:
        MOV      R0,#-1
        STR      R0,[R6, #+8]
// 1093         ubl.encoder_diff = 0;
??_lcd_mesh_fine_tune_2:
        MOVS     R0,#+0
        STR      R0,[R1, #+0]
// 1094 
// 1095         mesh_edit_accumulator += float(ubl_encoderPosition) * 0.005 / 2.0;
        LDR      R0,[R6, #+4]
          CFI FunCall __aeabi_f2d
        BL       __aeabi_f2d
        MOV      R8,R0
        MOV      R9,R1
        LDR      R0,[R6, #+8]
          CFI FunCall __aeabi_i2f
        BL       __aeabi_i2f
          CFI FunCall __aeabi_f2d
        BL       __aeabi_f2d
        LDR.W    R2,??DataTable140  ;; 0x47ae147b
        LDR.W    R3,??DataTable140_1  ;; 0x3f647ae1
          CFI FunCall __aeabi_dmul
        BL       __aeabi_dmul
        MOV      R2,R8
        MOV      R3,R9
          CFI FunCall __aeabi_dadd
        BL       __aeabi_dadd
          CFI FunCall __aeabi_d2f
        BL       __aeabi_d2f
        STR      R0,[R6, #+4]
// 1096         mesh_edit_value = mesh_edit_accumulator;
// 1097         encoderPosition = 0;
        MOVS     R1,#+0
        STR      R1,[R5, #+72]
// 1098         lcdDrawUpdate = LCDVIEW_REDRAW_NOW;
        MOVS     R1,#+1
        STRB     R1,[R5, #+2]
// 1099 
// 1100         const int32_t rounded = (int32_t)(mesh_edit_value * 1000.0);
// 1101         mesh_edit_value = float(rounded - (rounded % 5L)) / 1000.0;
          CFI FunCall __aeabi_f2d
        BL       __aeabi_f2d
        MOVS     R2,#+0
        LDR.W    R3,??DataTable140_2  ;; 0x408f4000
          CFI FunCall __aeabi_dmul
        BL       __aeabi_dmul
          CFI FunCall __aeabi_d2iz
        BL       __aeabi_d2iz
        MOVS     R1,#+5
        SDIV     R0,R0,R1
        ADD      R0,R0,R0, LSL #+2
          CFI FunCall __aeabi_i2f
        BL       __aeabi_i2f
        LDR.W    R1,??DataTable140_3  ;; 0x447a0000
          CFI FunCall __aeabi_fdiv
        BL       __aeabi_fdiv
        STR      R0,[R6, #+0]
// 1102       }
// 1103 
// 1104       if (lcdDrawUpdate)
??_lcd_mesh_fine_tune_0:
        LDRB     R0,[R5, #+2]
        CMP      R0,#+0
        BEQ.N    ??_lcd_mesh_fine_tune_3
// 1105         lcd_implementation_drawedit(msg, ftostr43sign(mesh_edit_value));
        MOVS     R1,#+32
        LDR.W    R0,??DataTable141
          CFI FunCall _Z12ftostr43signRKfc
        BL       _Z12ftostr43signRKfc
        MOV      R1,R0
        MOV      R0,R4
        POP      {R4-R6,R8,R9,LR}
          CFI R4 SameValue
          CFI R5 SameValue
          CFI R6 SameValue
          CFI R8 SameValue
          CFI R9 SameValue
          CFI R14 SameValue
          CFI CFA R13+0
          CFI FunCall _Z27lcd_implementation_draweditPKcS0_
        B.W      _Z27lcd_implementation_draweditPKcS0_
          CFI R4 Frame(CFA, -24)
          CFI R5 Frame(CFA, -20)
          CFI R6 Frame(CFA, -16)
          CFI R8 Frame(CFA, -12)
          CFI R9 Frame(CFA, -8)
          CFI R14 Frame(CFA, -4)
          CFI CFA R13+24
// 1106     }
??_lcd_mesh_fine_tune_3:
        POP      {R4-R6,R8,R9,PC}  ;; return
          CFI EndBlock cfiBlock36
// 1107 

        SECTION `.text`:CODE:NOROOT(1)
          CFI Block cfiBlock37 Using cfiCommon0
          CFI Function _Z18_lcd_mesh_edit_NOPv
          CFI NoCalls
        THUMB
// 1108     void _lcd_mesh_edit_NOP() {
// 1109       defer_return_to_status = true;
_Z18_lcd_mesh_edit_NOPv:
        MOVS     R0,#+1
        LDR.W    R1,??DataTable134_5
        STRB     R0,[R1, #+17]
// 1110     }
        BX       LR               ;; return
          CFI EndBlock cfiBlock37

        SECTION `.text`:CODE:NOROOT(2)
        SECTION_TYPE SHT_PROGBITS, 0
        DATA
??DataTable121:
        DC32     active_extruder
// 1111 

        SECTION `.text`:CODE:NOROOT(1)
          CFI Block cfiBlock38 Using cfiCommon0
          CFI Function _Z14_lcd_mesh_editv
        THUMB
// 1112     void _lcd_mesh_edit() {
// 1113       _lcd_mesh_fine_tune(PSTR("Mesh Editor"));
_Z14_lcd_mesh_editv:
        ADR.W    R0,?_15
          CFI FunCall _ZN34_INTERNAL_12_ultralcd_cpp_6629db9219_lcd_mesh_fine_tuneEPKc
        B.N      _ZN34_INTERNAL_12_ultralcd_cpp_6629db9219_lcd_mesh_fine_tuneEPKc
// 1114     }
          CFI EndBlock cfiBlock38
// 1115 

        SECTION `.text`:CODE:NOROOT(1)
          CFI Block cfiBlock39 Using cfiCommon0
          CFI Function _Z13lcd_mesh_editv
        THUMB
// 1116     float lcd_mesh_edit() {
_Z13lcd_mesh_editv:
        PUSH     {R7,LR}
          CFI R14 Frame(CFA, -4)
          CFI CFA R13+8
// 1117       lcd_goto_screen(_lcd_mesh_edit_NOP);
        MOVS     R1,#+0
        LDR.W    R0,??DataTable141_1
          CFI FunCall _Z15lcd_goto_screenPFvvEj
        BL       _Z15lcd_goto_screenPFvvEj
// 1118       _lcd_mesh_fine_tune(PSTR("Mesh Editor"));
        ADR.W    R0,?_15
          CFI FunCall _ZN34_INTERNAL_12_ultralcd_cpp_6629db9219_lcd_mesh_fine_tuneEPKc
        BL       _ZN34_INTERNAL_12_ultralcd_cpp_6629db9219_lcd_mesh_fine_tuneEPKc
// 1119       return mesh_edit_value;
        LDR.W    R0,??DataTable141
        LDR      R0,[R0, #+0]
        POP      {R1,PC}          ;; return
// 1120     }
          CFI EndBlock cfiBlock39

        SECTION `.text`:CODE:NOROOT(2)
        SECTION_TYPE SHT_PROGBITS, 0
        DATA
?_15:
        DC8 "Mesh Editor"
// 1121 

        SECTION `.text`:CODE:NOROOT(1)
          CFI Block cfiBlock40 Using cfiCommon0
          CFI Function _Z19lcd_mesh_edit_setupf
        THUMB
// 1122     void lcd_mesh_edit_setup(float initial) {
// 1123       mesh_edit_value = mesh_edit_accumulator = initial;
_Z19lcd_mesh_edit_setupf:
        LDR.W    R1,??DataTable141
        STR      R0,[R1, #+4]
        STR      R0,[R1, #+0]
// 1124       lcd_goto_screen(_lcd_mesh_edit_NOP);
        MOVS     R1,#+0
        LDR.W    R0,??DataTable141_1
          CFI FunCall _Z15lcd_goto_screenPFvvEj
        B.W      _Z15lcd_goto_screenPFvvEj
// 1125     }
          CFI EndBlock cfiBlock40
// 1126 

        SECTION `.text`:CODE:NOROOT(1)
          CFI Block cfiBlock41 Using cfiCommon0
          CFI Function _Z18_lcd_z_offset_editv
        THUMB
// 1127     void _lcd_z_offset_edit() {
// 1128       _lcd_mesh_fine_tune(PSTR("Z-Offset: "));
_Z18_lcd_z_offset_editv:
        ADR.W    R0,?_16
          CFI FunCall _ZN34_INTERNAL_12_ultralcd_cpp_6629db9219_lcd_mesh_fine_tuneEPKc
        B.N      _ZN34_INTERNAL_12_ultralcd_cpp_6629db9219_lcd_mesh_fine_tuneEPKc
// 1129     }
          CFI EndBlock cfiBlock41

        SECTION `.text`:CODE:NOROOT(2)
        SECTION_TYPE SHT_PROGBITS, 0
        DATA
?_16:
        DC8 "Z-Offset: "
        DC8 0
// 1130 

        SECTION `.text`:CODE:NOROOT(1)
          CFI Block cfiBlock42 Using cfiCommon0
          CFI Function _Z17lcd_z_offset_editv
        THUMB
// 1131     float lcd_z_offset_edit() {
_Z17lcd_z_offset_editv:
        PUSH     {R7,LR}
          CFI R14 Frame(CFA, -4)
          CFI CFA R13+8
// 1132       lcd_goto_screen(_lcd_z_offset_edit);
        MOVS     R1,#+0
        LDR.W    R0,??DataTable142_1
          CFI FunCall _Z15lcd_goto_screenPFvvEj
        BL       _Z15lcd_goto_screenPFvvEj
// 1133       return mesh_edit_value;
        LDR.W    R0,??DataTable141
        LDR      R0,[R0, #+0]
        POP      {R1,PC}          ;; return
// 1134     }
          CFI EndBlock cfiBlock42
// 1135 

        SECTION `.text`:CODE:NOROOT(1)
          CFI Block cfiBlock43 Using cfiCommon0
          CFI Function _Z23lcd_z_offset_edit_setupf
        THUMB
// 1136     void lcd_z_offset_edit_setup(float initial) {
// 1137       mesh_edit_value = mesh_edit_accumulator = initial;
_Z23lcd_z_offset_edit_setupf:
        LDR.W    R1,??DataTable141
        STR      R0,[R1, #+4]
        STR      R0,[R1, #+0]
// 1138       lcd_goto_screen(_lcd_z_offset_edit);
        MOVS     R1,#+0
        LDR.W    R0,??DataTable142_1
          CFI FunCall _Z15lcd_goto_screenPFvvEj
        B.W      _Z15lcd_goto_screenPFvvEj
// 1139     }
          CFI EndBlock cfiBlock43
// 1140 
// 1141   #endif // AUTO_BED_LEVELING_UBL
// 1142 
// 1143 
// 1144   /**
// 1145    * Watch temperature callbacks
// 1146    */
// 1147   #if HAS_TEMP_HOTEND
// 1148     #if WATCH_HOTENDS
// 1149       #define _WATCH_FUNC(N) thermalManager.start_watching_heater(N)
// 1150     #else
// 1151       #define _WATCH_FUNC(N) NOOP
// 1152     #endif

        SECTION `.text`:CODE:NOROOT(1)
          CFI Block cfiBlock44 Using cfiCommon0
          CFI Function _Z22watch_temp_callback_E0v
        THUMB
// 1153     void watch_temp_callback_E0() { _WATCH_FUNC(0); }
_Z22watch_temp_callback_E0v:
        MOVS     R0,#+0
          CFI FunCall _ZN11Temperature21start_watching_heaterEh
        B.W      _ZN11Temperature21start_watching_heaterEh
          CFI EndBlock cfiBlock44
// 1154     #if HOTENDS > 1
// 1155       void watch_temp_callback_E1() { _WATCH_FUNC(1); }
// 1156       #if HOTENDS > 2
// 1157         void watch_temp_callback_E2() { _WATCH_FUNC(2); }
// 1158         #if HOTENDS > 3
// 1159           void watch_temp_callback_E3() { _WATCH_FUNC(3); }
// 1160           #if HOTENDS > 4
// 1161             void watch_temp_callback_E4() { _WATCH_FUNC(4); }
// 1162           #endif // HOTENDS > 4
// 1163         #endif // HOTENDS > 3
// 1164       #endif // HOTENDS > 2
// 1165     #endif // HOTENDS > 1
// 1166   #endif // HAS_TEMP_HOTEND
// 1167 
// 1168   #if WATCH_THE_BED

        SECTION `.text`:CODE:NOROOT(1)
          CFI Block cfiBlock45 Using cfiCommon0
          CFI Function _Z23watch_temp_callback_bedv
          CFI FunCall _ZN11Temperature18start_watching_bedEv
        THUMB
// 1169     void watch_temp_callback_bed() { thermalManager.start_watching_bed(); }
_Z23watch_temp_callback_bedv:
        B.W      _ZN11Temperature18start_watching_bedEv
          CFI EndBlock cfiBlock45
// 1170   #endif
// 1171 
// 1172   #if ENABLED(FILAMENT_CHANGE_FEATURE)

        SECTION `.text`:CODE:NOROOT(1)
          CFI Block cfiBlock46 Using cfiCommon0
          CFI Function _Z27lcd_enqueue_filament_changev
        THUMB
// 1173     void lcd_enqueue_filament_change() {
_Z27lcd_enqueue_filament_changev:
        PUSH     {R7,LR}
          CFI R14 Frame(CFA, -4)
          CFI CFA R13+8
// 1174       if (!DEBUGGING(DRYRUN) && thermalManager.tooColdToExtrude(active_extruder)) {
        LDR.W    R0,??DataTable142_2
        LDRB     R0,[R0, #+0]
        LSLS     R0,R0,#+28
        BMI.N    ??lcd_enqueue_filament_change_0
        LDR.W    R0,??DataTable143_1
        LDRB     R0,[R0, #+0]
          CFI FunCall _ZN11Temperature16tooColdToExtrudeEh
        BL       _ZN11Temperature16tooColdToExtrudeEh
        CMP      R0,#+0
        BEQ.N    ??lcd_enqueue_filament_change_0
// 1175         lcd_save_previous_screen();
          CFI FunCall _Z24lcd_save_previous_screenv
        BL       _Z24lcd_save_previous_screenv
// 1176         lcd_goto_screen(lcd_filament_change_toocold_menu);
        MOVS     R1,#+0
        LDR.W    R0,??DataTable145
        POP      {R2,LR}
          CFI R14 SameValue
          CFI CFA R13+0
          CFI FunCall _Z15lcd_goto_screenPFvvEj
        B.W      _Z15lcd_goto_screenPFvvEj
          CFI R14 Frame(CFA, -4)
          CFI CFA R13+8
// 1177         return;
// 1178       }
// 1179       lcd_filament_change_show_message(FILAMENT_CHANGE_MESSAGE_INIT);
??lcd_enqueue_filament_change_0:
        MOVS     R0,#+0
          CFI FunCall _Z32lcd_filament_change_show_message21FilamentChangeMessage
        BL       _Z32lcd_filament_change_show_message21FilamentChangeMessage
// 1180       enqueue_and_echo_commands_P(PSTR("M600"));
        ADR.W    R0,?_17
        POP      {R1,LR}
          CFI R14 SameValue
          CFI CFA R13+0
          CFI FunCall _Z27enqueue_and_echo_commands_PPKc
        B.W      _Z27enqueue_and_echo_commands_PPKc
// 1181     }
          CFI EndBlock cfiBlock46

        SECTION `.text`:CODE:NOROOT(2)
        SECTION_TYPE SHT_PROGBITS, 0
        DATA
??DataTable126:
        DC32     row_y1+0x2C4

        SECTION `.text`:CODE:NOROOT(2)
        SECTION_TYPE SHT_PROGBITS, 0
        DATA
??DataTable126_1:
        DC32     screen_history

        SECTION `.text`:CODE:NOROOT(2)
        SECTION_TYPE SHT_PROGBITS, 0
        DATA
??DataTable126_2:
        DC32     _Z13lcd_main_menuv

        SECTION `.text`:CODE:NOROOT(2)
        SECTION_TYPE SHT_PROGBITS, 0
        DATA
??DataTable126_3:
        DC32     ?_4

        SECTION `.text`:CODE:NOROOT(2)
        SECTION_TYPE SHT_PROGBITS, 0
        DATA
??DataTable126_4:
        DC32     ?_5

        SECTION `.text`:CODE:NOROOT(2)
        SECTION_TYPE SHT_PROGBITS, 0
        DATA
??DataTable126_5:
        DC32     _ZN11Temperature19current_temperatureE

        SECTION `.text`:CODE:NOROOT(2)
        SECTION_TYPE SHT_PROGBITS, 0
        DATA
??DataTable126_6:
        DC32     ?_8

        SECTION `.text`:CODE:NOROOT(2)
        SECTION_TYPE SHT_PROGBITS, 0
        DATA
??DataTable126_7:
        DC32     _ZN11Temperature23current_temperature_bedE

        SECTION `.text`:CODE:NOROOT(2)
        SECTION_TYPE SHT_PROGBITS, 0
        DATA
??DataTable126_8:
        DC32     mksEndStopsCnt

        SECTION `.text`:CODE:NOROOT(2)
        SECTION_TYPE SHT_PROGBITS, 0
        DATA
??DataTable126_9:
        DC32     ?_10

        SECTION `.text`:CODE:NOROOT(2)
        SECTION_TYPE SHT_PROGBITS, 0
        DATA
??DataTable126_10:
        DC32     mksEeprom_state

        SECTION `.text`:CODE:NOROOT(2)
        SECTION_TYPE SHT_PROGBITS, 0
        DATA
?_17:
        DC8 "M600"
        DC8 0, 0, 0
// 1182   #endif
// 1183 
// 1184   /**
// 1185    *
// 1186    * "Tune" submenu
// 1187    *
// 1188    */

        SECTION `.text`:CODE:NOROOT(1)
          CFI Block cfiBlock47 Using cfiCommon0
          CFI Function _Z13lcd_tune_menuv
        THUMB
// 1189   void lcd_tune_menu() {
_Z13lcd_tune_menuv:
        PUSH     {R0-R10,LR}
          CFI R14 Frame(CFA, -4)
          CFI R10 Frame(CFA, -8)
          CFI R9 Frame(CFA, -12)
          CFI R8 Frame(CFA, -16)
          CFI R7 Frame(CFA, -20)
          CFI R6 Frame(CFA, -24)
          CFI R5 Frame(CFA, -28)
          CFI R4 Frame(CFA, -32)
          CFI CFA R13+48
// 1190     START_MENU();
        LDR.W    R7,??DataTable134_5
        MOVS     R0,#+0
        STRB     R0,[R7, #+9]
        LDR      R0,[R7, #+72]
        MOVW     R1,#+32769
        CMP      R0,R1
        BCC.N    ??lcd_tune_menu_0
        MOVS     R0,#+0
        STR      R0,[R7, #+72]
??lcd_tune_menu_0:
        LDRSB    R4,[R7, #+72]
        LDRSB    R0,[R7, #+20]
        MOV      R1,R0
        CMP      R1,#+0
        BLE.N    ??lcd_tune_menu_1
        SUBS     R1,R1,#+1
        CMP      R4,R1
        BLT.N    ??lcd_tune_menu_1
        CMP      R1,#+0
        BPL.N    ??lcd_tune_menu_2
        MOVS     R4,#+0
        B.N      ??lcd_tune_menu_3
??lcd_tune_menu_2:
        SUBS     R4,R0,#+1
        SXTB     R4,R4
??lcd_tune_menu_3:
        STR      R4,[R7, #+72]
??lcd_tune_menu_1:
        MOVS     R0,#+0
        STRB     R0,[R7, #+16]
        LDRSB    R0,[R7, #+14]
        CMP      R4,R0
        BGE.N    ??lcd_tune_menu_4
        STRB     R4,[R7, #+14]
??lcd_tune_menu_4:
        LDRSB    R0,[R7, #+14]
        ADDS     R0,R0,#+4
        CMP      R4,R0
        BLT.N    ??lcd_tune_menu_5
        MOV      R0,R4
        SUBS     R0,R0,#+3
        STRB     R0,[R7, #+14]
??lcd_tune_menu_5:
        LDRSB    R5,[R7, #+14]
        MOV      R8,#+0
        LDR.W    R9,??DataTable143
        ADD      R10,R9,#+54
        B.N      ??lcd_tune_menu_6
// 1191 
// 1192     //
// 1193     // ^ Main
// 1194     //
// 1195     MENU_BACK(MSG_MAIN);
// 1196 
// 1197     //
// 1198     // Speed:
// 1199     //
// 1200     MENU_ITEM_EDIT(int3, MSG_SPEED, &feedrate_percentage, 10, 999);
??lcd_tune_menu_7:
        CMP      R5,#+1
        BNE.N    ??lcd_tune_menu_8
        LDRB     R0,[R7, #+2]
        CMP      R0,#+0
        BEQ.N    ??lcd_tune_menu_9
        CMP      R4,#+1
        BNE.W    ??lcd_tune_menu_10
        MOVS     R0,#+1
??lcd_tune_menu_11:
        LDR.W    R3,??DataTable144
        MOVW     R1,#+999
        STR      R1,[SP, #+8]
        MOVS     R1,#+10
        STR      R1,[SP, #+4]
        LDR.W    R1,??DataTable144_1
        STR      R1,[SP, #+0]
        MOV      R2,R3
        MOV      R1,R8
        UXTB     R1,R1
          CFI FunCall _Z45lcd_implementation_drawmenu_setting_edit_int3bhPKcS0_Piz
        BL       _Z45lcd_implementation_drawmenu_setting_edit_int3bhPKcS0_Piz
??lcd_tune_menu_9:
        LDRB     R0,[R7, #+11]
        CMP      R0,#+0
        BEQ.N    ??lcd_tune_menu_8
        CMP      R4,#+1
        BNE.N    ??lcd_tune_menu_8
        MOVW     R3,#+999
        MOVS     R2,#+10
        LDR.W    R1,??DataTable144_1
        LDR.W    R0,??DataTable144
          CFI FunCall _Z29menu_action_setting_edit_int3PKcPiii
        BL       _Z29menu_action_setting_edit_int3PKcPiii
        LDRB     R0,[R7, #+16]
        CMP      R0,#+0
        BNE.W    ??lcd_tune_menu_12
??lcd_tune_menu_8:
        MOVS     R6,#+2
// 1201 
// 1202     // Manual bed leveling, Bed Z:
// 1203     /*--mks cfg-- MESH_BED_LEVELING */
// 1204 //    #if ENABLED(MESH_BED_LEVELING) && ENABLED(LCD_BED_LEVELING)
// 1205 	if(BED_LEVELING_METHOD == MESH_BED_LEVELING)
        LDRB     R0,[R10, #+10]
        CMP      R0,#+32
        BNE.N    ??lcd_tune_menu_13
// 1206 		MENU_ITEM_EDIT(float43, MSG_BED_Z, &mbl.z_offset, -1, 1);
        CMP      R5,#+2
        BNE.N    ??lcd_tune_menu_14
        LDRB     R0,[R7, #+2]
        CMP      R0,#+0
        BEQ.N    ??lcd_tune_menu_15
        CMP      R4,#+2
        BNE.W    ??lcd_tune_menu_16
        MOVS     R0,#+1
??lcd_tune_menu_17:
        LDR.W    R2,??DataTable144_2
        MOVS     R1,#+1
        STR      R1,[SP, #+8]
        MOV      R1,#-1
        STR      R1,[SP, #+4]
        LDR.W    R1,??DataTable144_3
        STR      R1,[SP, #+0]
        MOV      R3,R2
        MOV      R1,R8
        UXTB     R1,R1
          CFI FunCall _Z48lcd_implementation_drawmenu_setting_edit_float43bhPKcS0_Pfz
        BL       _Z48lcd_implementation_drawmenu_setting_edit_float43bhPKcS0_Pfz
??lcd_tune_menu_15:
        LDRB     R0,[R7, #+11]
        CMP      R0,#+0
        BEQ.N    ??lcd_tune_menu_14
        CMP      R4,#+2
        BNE.N    ??lcd_tune_menu_14
        MOV      R3,#+1065353216
        LDR.W    R2,??DataTable144_4  ;; 0xbf800000
        LDR.W    R1,??DataTable144_3
        LDR.W    R0,??DataTable144_2
          CFI FunCall _Z32menu_action_setting_edit_float43PKcPfff
        BL       _Z32menu_action_setting_edit_float43PKcPfff
        LDRB     R0,[R7, #+16]
        CMP      R0,#+0
        BNE.W    ??lcd_tune_menu_12
??lcd_tune_menu_14:
        MOVS     R6,#+3
// 1207    // #endif
// 1208 
// 1209     //
// 1210     // Nozzle:
// 1211     // Nozzle [1-4]:
// 1212     //
// 1213     #if HOTENDS == 1
// 1214       MENU_MULTIPLIER_ITEM_EDIT_CALLBACK(int3, MSG_NOZZLE, &thermalManager.target_temperature[0], 0, HEATER_0_MAXTEMP - 15, watch_temp_callback_E0);
??lcd_tune_menu_13:
        CMP      R5,R6
        BNE.N    ??lcd_tune_menu_18
        LDRB     R0,[R7, #+2]
        CMP      R0,#+0
        BEQ.N    ??lcd_tune_menu_19
        CMP      R4,R6
        BNE.W    ??lcd_tune_menu_20
        MOVS     R0,#+1
??lcd_tune_menu_21:
        LDR.W    R2,??DataTable145_3
        LDR.W    R1,??DataTable145_4
        STR      R1,[SP, #+12]
        LDRSH    R1,[R9, #+48]
        SUBS     R1,R1,#+15
        STR      R1,[SP, #+8]
        MOVS     R1,#+0
        STR      R1,[SP, #+4]
        LDR.W    R1,??DataTable145_5
        STR      R1,[SP, #+0]
        MOV      R3,R2
        MOV      R1,R8
        UXTB     R1,R1
          CFI FunCall _Z54lcd_implementation_drawmenu_setting_edit_callback_int3bhPKcS0_Piz
        BL       _Z54lcd_implementation_drawmenu_setting_edit_callback_int3bhPKcS0_Piz
??lcd_tune_menu_19:
        LDRB     R0,[R7, #+11]
        CMP      R0,#+0
        BEQ.N    ??lcd_tune_menu_18
        CMP      R4,R6
        BNE.N    ??lcd_tune_menu_18
        MOVS     R0,#+1
        STRB     R0,[R7, #+9]
        MOVS     R0,#+0
        STR      R0,[R7, #+76]
        LDR.W    R0,??DataTable145_4
        STR      R0,[SP, #+0]
        LDRSH    R3,[R9, #+48]
        SUBS     R3,R3,#+15
        MOVS     R2,#+0
        LDR.W    R1,??DataTable145_5
        LDR.W    R0,??DataTable145_3
          CFI FunCall _Z38menu_action_setting_edit_callback_int3PKcPiiiPFvvE
        BL       _Z38menu_action_setting_edit_callback_int3PKcPiiiPFvvE
        LDRB     R0,[R7, #+16]
        CMP      R0,#+0
        BNE.W    ??lcd_tune_menu_12
??lcd_tune_menu_18:
        ADDS     R6,R6,#+1
// 1215      /*--mks cfg delta--*/
// 1216 	 // MENU_MULTIPLIER_ITEM_EDIT_CALLBACK(int3, MSG_NOZZLE, &thermalManager.target_temperature[0], 0, HEATER_0_MAXTEMP - 15, watch_temp_callback_E0);    
// 1217 #else //HOTENDS > 1
// 1218       MENU_MULTIPLIER_ITEM_EDIT_CALLBACK(int3, MSG_NOZZLE MSG_N1, &thermalManager.target_temperature[0], 0, HEATER_0_MAXTEMP - 15, watch_temp_callback_E0);
// 1219       MENU_MULTIPLIER_ITEM_EDIT_CALLBACK(int3, MSG_NOZZLE MSG_N2, &thermalManager.target_temperature[1], 0, HEATER_1_MAXTEMP - 15, watch_temp_callback_E1);
// 1220       #if HOTENDS > 2
// 1221         MENU_MULTIPLIER_ITEM_EDIT_CALLBACK(int3, MSG_NOZZLE MSG_N3, &thermalManager.target_temperature[2], 0, HEATER_2_MAXTEMP - 15, watch_temp_callback_E2);
// 1222         #if HOTENDS > 3
// 1223           MENU_MULTIPLIER_ITEM_EDIT_CALLBACK(int3, MSG_NOZZLE MSG_N4, &thermalManager.target_temperature[3], 0, HEATER_3_MAXTEMP - 15, watch_temp_callback_E3);
// 1224           #if HOTENDS > 4
// 1225             MENU_MULTIPLIER_ITEM_EDIT_CALLBACK(int3, MSG_NOZZLE MSG_N5, &thermalManager.target_temperature[4], 0, HEATER_4_MAXTEMP - 15, watch_temp_callback_E4);
// 1226           #endif // HOTENDS > 4
// 1227         #endif // HOTENDS > 3
// 1228       #endif // HOTENDS > 2
// 1229     #endif // HOTENDS > 1
// 1230 
// 1231     //
// 1232     // Bed:
// 1233     //
// 1234     #if WATCH_THE_BED
// 1235 	if(HAS_TEMP_BED)	/*--mks cfg-- HAS_TEMP_BED --*/
        LDRB     R0,[R10, #+0]
        CMP      R0,#+0
        BEQ.N    ??lcd_tune_menu_22
// 1236       MENU_MULTIPLIER_ITEM_EDIT_CALLBACK(int3, MSG_BED, &thermalManager.target_temperature_bed, 0, BED_MAXTEMP - 15, watch_temp_callback_bed);
        CMP      R5,R6
        BNE.N    ??lcd_tune_menu_23
        LDRB     R0,[R7, #+2]
        CMP      R0,#+0
        BEQ.N    ??lcd_tune_menu_24
        CMP      R4,R6
        BNE.W    ??lcd_tune_menu_25
        MOVS     R0,#+1
??lcd_tune_menu_26:
        LDR.W    R2,??DataTable145_6
        LDR.W    R1,??DataTable145_7
        STR      R1,[SP, #+12]
        LDRSH    R1,[R9, #+50]
        SUBS     R1,R1,#+15
        STR      R1,[SP, #+8]
        MOVS     R1,#+0
        STR      R1,[SP, #+4]
        LDR.W    R1,??DataTable145_8
        STR      R1,[SP, #+0]
        MOV      R3,R2
        MOV      R1,R8
        UXTB     R1,R1
          CFI FunCall _Z54lcd_implementation_drawmenu_setting_edit_callback_int3bhPKcS0_Piz
        BL       _Z54lcd_implementation_drawmenu_setting_edit_callback_int3bhPKcS0_Piz
??lcd_tune_menu_24:
        LDRB     R0,[R7, #+11]
        CMP      R0,#+0
        BEQ.N    ??lcd_tune_menu_23
        CMP      R4,R6
        BNE.N    ??lcd_tune_menu_23
        MOVS     R0,#+1
        STRB     R0,[R7, #+9]
        MOVS     R0,#+0
        STR      R0,[R7, #+76]
        LDR.W    R0,??DataTable145_7
        STR      R0,[SP, #+0]
        LDRSH    R3,[R9, #+50]
        SUBS     R3,R3,#+15
        MOVS     R2,#+0
        LDR.W    R1,??DataTable145_8
        LDR.W    R0,??DataTable145_6
          CFI FunCall _Z38menu_action_setting_edit_callback_int3PKcPiiiPFvvE
        BL       _Z38menu_action_setting_edit_callback_int3PKcPiiiPFvvE
        LDRB     R0,[R7, #+16]
        CMP      R0,#+0
        BNE.W    ??lcd_tune_menu_12
??lcd_tune_menu_23:
        ADDS     R6,R6,#+1
// 1237     #endif
// 1238 
// 1239     //
// 1240     // Fan Speed:
// 1241     //
// 1242     #if FAN_COUNT > 0
// 1243       #if HAS_FAN0
// 1244         #if FAN_COUNT > 1
// 1245           #define MSG_1ST_FAN_SPEED MSG_FAN_SPEED " 1"
// 1246         #else
// 1247           #define MSG_1ST_FAN_SPEED MSG_FAN_SPEED
// 1248         #endif
// 1249         MENU_MULTIPLIER_ITEM_EDIT(int3, MSG_1ST_FAN_SPEED, &fanSpeeds[0], 0, 255);
??lcd_tune_menu_22:
        CMP      R5,R6
        BNE.N    ??lcd_tune_menu_27
        LDRB     R0,[R7, #+2]
        CMP      R0,#+0
        BEQ.N    ??lcd_tune_menu_28
        CMP      R4,R6
        BNE.W    ??lcd_tune_menu_29
        MOVS     R0,#+1
??lcd_tune_menu_30:
        LDR.W    R2,??DataTable145_9
        MOVS     R1,#+255
        STR      R1,[SP, #+8]
        MOVS     R1,#+0
        STR      R1,[SP, #+4]
        LDR.N    R1,??DataTable134_2
        STR      R1,[SP, #+0]
        MOV      R3,R2
        MOV      R1,R8
        UXTB     R1,R1
          CFI FunCall _Z45lcd_implementation_drawmenu_setting_edit_int3bhPKcS0_Piz
        BL       _Z45lcd_implementation_drawmenu_setting_edit_int3bhPKcS0_Piz
??lcd_tune_menu_28:
        LDRB     R0,[R7, #+11]
        CMP      R0,#+0
        BEQ.N    ??lcd_tune_menu_27
        CMP      R4,R6
        BNE.N    ??lcd_tune_menu_27
        MOVS     R0,#+1
        STRB     R0,[R7, #+9]
        MOVS     R0,#+0
        STR      R0,[R7, #+76]
        MOVS     R3,#+255
        MOV      R2,R0
        LDR.N    R1,??DataTable134_2
        LDR.W    R0,??DataTable145_9
          CFI FunCall _Z29menu_action_setting_edit_int3PKcPiii
        BL       _Z29menu_action_setting_edit_int3PKcPiii
        LDRB     R0,[R7, #+16]
        CMP      R0,#+0
        BNE.W    ??lcd_tune_menu_12
??lcd_tune_menu_27:
        ADDS     R6,R6,#+1
// 1250 		TIM1->CCR1 = fanSpeeds[0]*10000/255;	/*--mks--*/
        LDR.N    R0,??DataTable134_2
        LDR      R0,[R0, #+0]
        MOVW     R1,#+10000
        MULS     R0,R1,R0
        MOVS     R1,#+255
        SDIV     R0,R0,R1
        LDR.N    R1,??DataTable134_3  ;; 0x40012c34
        STR      R0,[R1, #+0]
// 1251       #endif
// 1252       #if HAS_FAN1
// 1253         MENU_MULTIPLIER_ITEM_EDIT(int3, MSG_FAN_SPEED " 2", &fanSpeeds[1], 0, 255);
// 1254       #endif
// 1255       #if HAS_FAN2
// 1256         MENU_MULTIPLIER_ITEM_EDIT(int3, MSG_FAN_SPEED " 3", &fanSpeeds[2], 0, 255);
// 1257       #endif
// 1258     #endif // FAN_COUNT > 0
// 1259 
// 1260     //
// 1261     // Flow:
// 1262     // Flow [1-5]:
// 1263     //
// 1264     #if EXTRUDERS == 1
// 1265       MENU_ITEM_EDIT(int3, MSG_FLOW, &flow_percentage[0], 10, 999);
        CMP      R5,R6
        BNE.N    ??lcd_tune_menu_31
        LDRB     R0,[R7, #+2]
        CMP      R0,#+0
        BEQ.N    ??lcd_tune_menu_32
        CMP      R4,R6
        BNE.N    ??lcd_tune_menu_33
        MOVS     R0,#+1
??lcd_tune_menu_34:
        LDR.W    R2,??DataTable145_10
        MOVW     R1,#+999
        STR      R1,[SP, #+8]
        MOVS     R1,#+10
        STR      R1,[SP, #+4]
        LDR.W    R1,??DataTable145_11
        STR      R1,[SP, #+0]
        MOV      R3,R2
        MOV      R1,R8
        UXTB     R1,R1
          CFI FunCall _Z45lcd_implementation_drawmenu_setting_edit_int3bhPKcS0_Piz
        BL       _Z45lcd_implementation_drawmenu_setting_edit_int3bhPKcS0_Piz
??lcd_tune_menu_32:
        LDRB     R0,[R7, #+11]
        CMP      R0,#+0
        BEQ.N    ??lcd_tune_menu_31
        CMP      R4,R6
        BNE.N    ??lcd_tune_menu_31
        MOVW     R3,#+999
        MOVS     R2,#+10
        LDR.W    R1,??DataTable145_11
        LDR.W    R0,??DataTable145_10
          CFI FunCall _Z29menu_action_setting_edit_int3PKcPiii
        BL       _Z29menu_action_setting_edit_int3PKcPiii
        LDRB     R0,[R7, #+16]
        CMP      R0,#+0
        BNE.N    ??lcd_tune_menu_12
??lcd_tune_menu_31:
        ADDS     R6,R6,#+1
// 1266     #else // EXTRUDERS > 1
// 1267       MENU_ITEM_EDIT(int3, MSG_FLOW, &flow_percentage[active_extruder], 10, 999);
// 1268       MENU_ITEM_EDIT(int3, MSG_FLOW MSG_N1, &flow_percentage[0], 10, 999);
// 1269       MENU_ITEM_EDIT(int3, MSG_FLOW MSG_N2, &flow_percentage[1], 10, 999);
// 1270       #if EXTRUDERS > 2
// 1271         MENU_ITEM_EDIT(int3, MSG_FLOW MSG_N3, &flow_percentage[2], 10, 999);
// 1272         #if EXTRUDERS > 3
// 1273           MENU_ITEM_EDIT(int3, MSG_FLOW MSG_N4, &flow_percentage[3], 10, 999);
// 1274           #if EXTRUDERS > 4
// 1275             MENU_ITEM_EDIT(int3, MSG_FLOW MSG_N5, &flow_percentage[4], 10, 999);
// 1276           #endif // EXTRUDERS > 4
// 1277         #endif // EXTRUDERS > 3
// 1278       #endif // EXTRUDERS > 2
// 1279     #endif // EXTRUDERS > 1
// 1280 
// 1281     //
// 1282     // Babystep X:
// 1283     // Babystep Y:
// 1284     // Babystep Z:
// 1285     //
// 1286     #if ENABLED(BABYSTEPPING)
// 1287       #if ENABLED(BABYSTEP_XY)
// 1288         MENU_ITEM(submenu, MSG_BABYSTEP_X, lcd_babystep_x);
// 1289         MENU_ITEM(submenu, MSG_BABYSTEP_Y, lcd_babystep_y);
// 1290       #endif
// 1291       #if ENABLED(BABYSTEP_ZPROBE_OFFSET)
// 1292         MENU_ITEM(submenu, MSG_ZPROBE_ZOFFSET, lcd_babystep_zoffset);
// 1293       #else
// 1294         MENU_ITEM(submenu, MSG_BABYSTEP_Z, lcd_babystep_z);
// 1295       #endif
// 1296     #endif
// 1297 
// 1298     //
// 1299     // Change filament
// 1300     //
// 1301     #if ENABLED(FILAMENT_CHANGE_FEATURE)
// 1302       if (!thermalManager.tooColdToExtrude(active_extruder))
        LDR.W    R0,??DataTable143_1
        LDRB     R0,[R0, #+0]
          CFI FunCall _ZN11Temperature16tooColdToExtrudeEh
        BL       _ZN11Temperature16tooColdToExtrudeEh
        CMP      R0,#+0
        BNE.N    ??lcd_tune_menu_35
// 1303         MENU_ITEM(function, MSG_FILAMENTCHANGE, lcd_enqueue_filament_change);
        CMP      R5,R6
        BNE.N    ??lcd_tune_menu_36
        LDRB     R0,[R7, #+2]
        CMP      R0,#+0
        BEQ.N    ??lcd_tune_menu_37
        CMP      R4,R6
        BNE.N    ??lcd_tune_menu_38
        MOVS     R0,#+1
??lcd_tune_menu_39:
        MOVS     R1,#+32
        STR      R1,[SP, #+0]
        MOVS     R3,#+62
        LDR.W    R2,??DataTable145_12
        MOV      R1,R8
        UXTB     R1,R1
          CFI FunCall _ZN34_INTERNAL_12_ultralcd_cpp_6629db9235lcd_implementation_drawmenu_genericEbhPKccc
        BL       _ZN34_INTERNAL_12_ultralcd_cpp_6629db9235lcd_implementation_drawmenu_genericEbhPKccc
??lcd_tune_menu_37:
        LDRB     R0,[R7, #+11]
        CMP      R0,#+0
        BEQ.N    ??lcd_tune_menu_36
        CMP      R4,R6
        BNE.N    ??lcd_tune_menu_36
        LDR.W    R0,??DataTable145_13
          CFI FunCall _Z20menu_action_functionPFvvE
        BL       _Z20menu_action_functionPFvvE
        LDRB     R0,[R7, #+16]
        CMP      R0,#+0
        BNE.N    ??lcd_tune_menu_12
??lcd_tune_menu_36:
        ADDS     R6,R6,#+1
??lcd_tune_menu_35:
        ADD      R8,R8,#+1
        SXTB     R8,R8
        ADDS     R5,R5,#+1
        SXTB     R5,R5
??lcd_tune_menu_6:
        CMP      R8,#+3
        BGT.N    ??lcd_tune_menu_40
        CMP      R5,#+0
        BNE.W    ??lcd_tune_menu_7
        LDRB     R0,[R7, #+2]
        CMP      R0,#+0
        BEQ.N    ??lcd_tune_menu_41
        MOV      R0,R4
        SUBS     R0,R0,#+1
        SBCS     R0,R0,R0
        LSRS     R0,R0,#+31
        MOVS     R1,#+4
        STR      R1,[SP, #+0]
        MOV      R3,R1
        LDR.W    R2,??DataTable146_1
        MOV      R1,R8
        UXTB     R1,R1
          CFI FunCall _ZN34_INTERNAL_12_ultralcd_cpp_6629db9235lcd_implementation_drawmenu_genericEbhPKccc
        BL       _ZN34_INTERNAL_12_ultralcd_cpp_6629db9235lcd_implementation_drawmenu_genericEbhPKccc
??lcd_tune_menu_41:
        LDRB     R0,[R7, #+11]
        CMP      R0,#+0
        BEQ.W    ??lcd_tune_menu_7
        CMP      R4,#+0
        BNE.W    ??lcd_tune_menu_7
          CFI FunCall _Z17_menu_action_backv
        BL       _Z17_menu_action_backv
        LDRB     R0,[R7, #+16]
        CMP      R0,#+0
        BEQ.W    ??lcd_tune_menu_7
        B.N      ??lcd_tune_menu_12
// 1304     #endif
// 1305 
// 1306     END_MENU();
??lcd_tune_menu_10:
        MOVS     R0,#+0
        B.N      ??lcd_tune_menu_11
??lcd_tune_menu_16:
        MOVS     R0,#+0
        B.N      ??lcd_tune_menu_17
??lcd_tune_menu_20:
        MOVS     R0,#+0
        B.N      ??lcd_tune_menu_21
??lcd_tune_menu_25:
        MOVS     R0,#+0
        B.N      ??lcd_tune_menu_26
??lcd_tune_menu_29:
        MOVS     R0,#+0
        B.N      ??lcd_tune_menu_30
??lcd_tune_menu_33:
        MOVS     R0,#+0
        B.N      ??lcd_tune_menu_34
??lcd_tune_menu_38:
        MOVS     R0,#+0
        B.N      ??lcd_tune_menu_39
??lcd_tune_menu_40:
        STRB     R6,[R7, #+20]
// 1307   }
??lcd_tune_menu_12:
        POP      {R0-R10,PC}      ;; return
          CFI EndBlock cfiBlock47
// 1308 
// 1309   /**
// 1310    *
// 1311    * "Driver current control" submenu items
// 1312    *
// 1313    */
// 1314   #if ENABLED(DAC_STEPPER_CURRENT)
// 1315     void dac_driver_getValues() { LOOP_XYZE(i) driverPercent[i] = dac_current_get_percent((AxisEnum)i); }
// 1316 
// 1317     void dac_driver_commit() { dac_current_set_percents(driverPercent); }
// 1318 
// 1319     void dac_driver_eeprom_write() { dac_commit_eeprom(); }
// 1320 
// 1321     void lcd_dac_menu() {
// 1322       dac_driver_getValues();
// 1323       START_MENU();
// 1324       MENU_BACK(MSG_CONTROL);
// 1325       MENU_ITEM_EDIT_CALLBACK(int3, MSG_X " " MSG_DAC_PERCENT, &driverPercent[X_AXIS], 0, 100, dac_driver_commit);
// 1326       MENU_ITEM_EDIT_CALLBACK(int3, MSG_Y " " MSG_DAC_PERCENT, &driverPercent[Y_AXIS], 0, 100, dac_driver_commit);
// 1327       MENU_ITEM_EDIT_CALLBACK(int3, MSG_Z " " MSG_DAC_PERCENT, &driverPercent[Z_AXIS], 0, 100, dac_driver_commit);
// 1328       MENU_ITEM_EDIT_CALLBACK(int3, MSG_E " " MSG_DAC_PERCENT, &driverPercent[E_AXIS], 0, 100, dac_driver_commit);
// 1329       MENU_ITEM(function, MSG_DAC_EEPROM_WRITE, dac_driver_eeprom_write);
// 1330       END_MENU();
// 1331     }
// 1332   #endif
// 1333   /*--mks cfg--*/
// 1334 //  constexpr int16_t heater_maxtemp[HOTENDS] = ARRAY_BY_HOTENDS(HEATER_0_MAXTEMP, HEATER_1_MAXTEMP, HEATER_2_MAXTEMP, HEATER_3_MAXTEMP, HEATER_4_MAXTEMP);

        SECTION `.bss`:DATA:REORDER:NOROOT(1)
        DATA
// 1335    int16_t heater_maxtemp[1];
heater_maxtemp:
        DS8 2
// 1336 
// 1337   /**
// 1338    *
// 1339    * "Prepare" submenu items
// 1340    *
// 1341    */

        SECTION `.text`:CODE:NOROOT(1)
          CFI Block cfiBlock48 Using cfiCommon0
          CFI Function _Z12_lcd_preheatisss
        THUMB
// 1342   void _lcd_preheat(const int endnum, const int16_t temph, const int16_t tempb, const int16_t fan) {
_Z12_lcd_preheatisss:
        PUSH     {R3-R7,LR}
          CFI R14 Frame(CFA, -4)
          CFI R7 Frame(CFA, -8)
          CFI R6 Frame(CFA, -12)
          CFI R5 Frame(CFA, -16)
          CFI R4 Frame(CFA, -20)
          CFI CFA R13+24
        MOV      R4,R1
        MOV      R5,R2
        MOV      R6,R3
// 1343     if (temph > 0) thermalManager.setTargetHotend(min(heater_maxtemp[endnum], temph), endnum);
        CMP      R1,#+0
        BLE.N    ??_lcd_preheat_0
        LDR.W    R1,??DataTable145_14
        LDRSH    R1,[R1, R0, LSL #+1]
        MOV      R2,R1
        MOV      R3,R4
        CMP      R2,R3
        BGE.N    ??_lcd_preheat_1
        MOV      R4,R1
??_lcd_preheat_1:
        MOV      R1,R0
        UXTB     R1,R1
        MOV      R7,R1
        MOV      R0,R4
          CFI FunCall __aeabi_i2f
        BL       __aeabi_i2f
        MOV      R1,R7
          CFI FunCall _ZN11Temperature15setTargetHotendEfh
        BL       _ZN11Temperature15setTargetHotendEfh
// 1344     #if TEMP_SENSOR_BED != 0
// 1345       if (tempb >= 0) thermalManager.setTargetBed(tempb);
??_lcd_preheat_0:
        MOVS     R0,R5
        BMI.N    ??_lcd_preheat_2
          CFI FunCall __aeabi_i2f
        BL       __aeabi_i2f
          CFI FunCall _ZN11Temperature12setTargetBedEf
        BL       _ZN11Temperature12setTargetBedEf
// 1346     #else
// 1347       UNUSED(tempb);
// 1348     #endif
// 1349     #if FAN_COUNT > 0
// 1350       #if FAN_COUNT > 1
// 1351         fanSpeeds[active_extruder < FAN_COUNT ? active_extruder : 0] = fan;
// 1352       #else
// 1353         fanSpeeds[0] = fan;
??_lcd_preheat_2:
        LDR.N    R0,??DataTable134_2
        STR      R6,[R0, #+0]
// 1354       #endif
// 1355     #else
// 1356       UNUSED(fan);
// 1357     #endif
// 1358     lcd_return_to_status();
        POP      {R0,R4-R7,LR}
          CFI R4 SameValue
          CFI R5 SameValue
          CFI R6 SameValue
          CFI R7 SameValue
          CFI R14 SameValue
          CFI CFA R13+0
          CFI FunCall _Z20lcd_return_to_statusv
        B.W      _Z20lcd_return_to_statusv
// 1359   }
          CFI EndBlock cfiBlock48
// 1360 
// 1361   #if TEMP_SENSOR_0 != 0

        SECTION `.text`:CODE:NOROOT(1)
          CFI Block cfiBlock49 Using cfiCommon0
          CFI Function _Z22lcd_preheat_m1_e0_onlyv
        THUMB
// 1362     void lcd_preheat_m1_e0_only() { _lcd_preheat(0, lcd_preheat_hotend_temp[0], -1, lcd_preheat_fan_speed[0]); }
_Z22lcd_preheat_m1_e0_onlyv:
        LDR.W    R0,??DataTable146_3
        LDR      R3,[R0, #+52]
        SXTH     R3,R3
        MOV      R2,#-1
        LDR      R1,[R0, #+36]
        SXTH     R1,R1
        MOVS     R0,#+0
          CFI FunCall _Z12_lcd_preheatisss
        B.N      _Z12_lcd_preheatisss
          CFI EndBlock cfiBlock49

        SECTION `.text`:CODE:NOROOT(1)
          CFI Block cfiBlock50 Using cfiCommon0
          CFI Function _Z22lcd_preheat_m2_e0_onlyv
        THUMB
// 1363     void lcd_preheat_m2_e0_only() { _lcd_preheat(0, lcd_preheat_hotend_temp[1], -1, lcd_preheat_fan_speed[1]); }
_Z22lcd_preheat_m2_e0_onlyv:
        LDR.W    R0,??DataTable146_3
        LDR      R3,[R0, #+56]
        SXTH     R3,R3
        MOV      R2,#-1
        LDR      R1,[R0, #+40]
        SXTH     R1,R1
        MOVS     R0,#+0
          CFI FunCall _Z12_lcd_preheatisss
        B.N      _Z12_lcd_preheatisss
          CFI EndBlock cfiBlock50
// 1364     #if TEMP_SENSOR_BED != 0

        SECTION `.text`:CODE:NOROOT(1)
          CFI Block cfiBlock51 Using cfiCommon0
          CFI Function _Z17lcd_preheat_m1_e0v
        THUMB
// 1365       void lcd_preheat_m1_e0() { _lcd_preheat(0, lcd_preheat_hotend_temp[0], lcd_preheat_bed_temp[0], lcd_preheat_fan_speed[0]); }
_Z17lcd_preheat_m1_e0v:
        LDR.W    R0,??DataTable146_3
        LDR      R3,[R0, #+52]
        SXTH     R3,R3
        LDR      R2,[R0, #+44]
        SXTH     R2,R2
        LDR      R1,[R0, #+36]
        SXTH     R1,R1
        MOVS     R0,#+0
          CFI FunCall _Z12_lcd_preheatisss
        B.N      _Z12_lcd_preheatisss
          CFI EndBlock cfiBlock51

        SECTION `.text`:CODE:NOROOT(1)
          CFI Block cfiBlock52 Using cfiCommon0
          CFI Function _Z17lcd_preheat_m2_e0v
        THUMB
// 1366       void lcd_preheat_m2_e0() { _lcd_preheat(0, lcd_preheat_hotend_temp[1], lcd_preheat_bed_temp[1], lcd_preheat_fan_speed[1]); }
_Z17lcd_preheat_m2_e0v:
        LDR.W    R0,??DataTable146_3
        LDR      R3,[R0, #+56]
        SXTH     R3,R3
        LDR      R2,[R0, #+48]
        SXTH     R2,R2
        LDR      R1,[R0, #+40]
        SXTH     R1,R1
        MOVS     R0,#+0
          CFI FunCall _Z12_lcd_preheatisss
        B.N      _Z12_lcd_preheatisss
          CFI EndBlock cfiBlock52
// 1367     #endif
// 1368   #endif
// 1369 
// 1370   #if HOTENDS > 1
// 1371     void lcd_preheat_m1_e1_only() { _lcd_preheat(1, lcd_preheat_hotend_temp[0], -1, lcd_preheat_fan_speed[0]); }
// 1372     void lcd_preheat_m2_e1_only() { _lcd_preheat(1, lcd_preheat_hotend_temp[1], -1, lcd_preheat_fan_speed[1]); }
// 1373     #if TEMP_SENSOR_BED != 0
// 1374       void lcd_preheat_m1_e1() { _lcd_preheat(1, lcd_preheat_hotend_temp[0], lcd_preheat_bed_temp[0], lcd_preheat_fan_speed[0]); }
// 1375       void lcd_preheat_m2_e1() { _lcd_preheat(1, lcd_preheat_hotend_temp[1], lcd_preheat_bed_temp[1], lcd_preheat_fan_speed[1]); }
// 1376     #endif
// 1377     #if HOTENDS > 2
// 1378       void lcd_preheat_m1_e2_only() { _lcd_preheat(2, lcd_preheat_hotend_temp[0], -1, lcd_preheat_fan_speed[0]); }
// 1379       void lcd_preheat_m2_e2_only() { _lcd_preheat(2, lcd_preheat_hotend_temp[1], -1, lcd_preheat_fan_speed[1]); }
// 1380       #if TEMP_SENSOR_BED != 0
// 1381         void lcd_preheat_m1_e2() { _lcd_preheat(2, lcd_preheat_hotend_temp[0], lcd_preheat_bed_temp[0], lcd_preheat_fan_speed[0]); }
// 1382         void lcd_preheat_m2_e2() { _lcd_preheat(2, lcd_preheat_hotend_temp[1], lcd_preheat_bed_temp[1], lcd_preheat_fan_speed[1]); }
// 1383       #endif
// 1384       #if HOTENDS > 3
// 1385         void lcd_preheat_m1_e3_only() { _lcd_preheat(3, lcd_preheat_hotend_temp[0], -1, lcd_preheat_fan_speed[0]); }
// 1386         void lcd_preheat_m2_e3_only() { _lcd_preheat(3, lcd_preheat_hotend_temp[1], -1, lcd_preheat_fan_speed[1]); }
// 1387         #if TEMP_SENSOR_BED != 0
// 1388           void lcd_preheat_m1_e3() { _lcd_preheat(3, lcd_preheat_hotend_temp[0], lcd_preheat_bed_temp[0], lcd_preheat_fan_speed[0]); }
// 1389           void lcd_preheat_m2_e3() { _lcd_preheat(3, lcd_preheat_hotend_temp[1], lcd_preheat_bed_temp[1], lcd_preheat_fan_speed[1]); }
// 1390         #endif
// 1391         #if HOTENDS > 4
// 1392           void lcd_preheat_m1_e4_only() { _lcd_preheat(4, lcd_preheat_hotend_temp[0], -1, lcd_preheat_fan_speed[0]); }
// 1393           void lcd_preheat_m2_e4_only() { _lcd_preheat(4, lcd_preheat_hotend_temp[1], -1, lcd_preheat_fan_speed[1]); }
// 1394           #if TEMP_SENSOR_BED != 0
// 1395             void lcd_preheat_m1_e4() { _lcd_preheat(4, lcd_preheat_hotend_temp[0], lcd_preheat_bed_temp[0], lcd_preheat_fan_speed[0]); }
// 1396             void lcd_preheat_m2_e4() { _lcd_preheat(4, lcd_preheat_hotend_temp[1], lcd_preheat_bed_temp[1], lcd_preheat_fan_speed[1]); }
// 1397           #endif
// 1398         #endif // HOTENDS > 4
// 1399       #endif // HOTENDS > 3
// 1400     #endif // HOTENDS > 2
// 1401 
// 1402     void lcd_preheat_m1_all() {
// 1403       #if HOTENDS > 1
// 1404         thermalManager.setTargetHotend(lcd_preheat_hotend_temp[0], 1);
// 1405         #if HOTENDS > 2
// 1406           thermalManager.setTargetHotend(lcd_preheat_hotend_temp[0], 2);
// 1407           #if HOTENDS > 3
// 1408             thermalManager.setTargetHotend(lcd_preheat_hotend_temp[0], 3);
// 1409             #if HOTENDS > 4
// 1410               thermalManager.setTargetHotend(lcd_preheat_hotend_temp[0], 4);
// 1411             #endif // HOTENDS > 4
// 1412           #endif // HOTENDS > 3
// 1413         #endif // HOTENDS > 2
// 1414       #endif // HOTENDS > 1
// 1415       #if TEMP_SENSOR_BED != 0
// 1416         lcd_preheat_m1_e0();
// 1417       #else
// 1418         lcd_preheat_m1_e0_only();
// 1419       #endif
// 1420     }
// 1421     void lcd_preheat_m2_all() {
// 1422       #if HOTENDS > 1
// 1423         thermalManager.setTargetHotend(lcd_preheat_hotend_temp[1], 1);
// 1424         #if HOTENDS > 2
// 1425           thermalManager.setTargetHotend(lcd_preheat_hotend_temp[1], 2);
// 1426           #if HOTENDS > 3
// 1427             thermalManager.setTargetHotend(lcd_preheat_hotend_temp[1], 3);
// 1428             #if HOTENDS > 4
// 1429               thermalManager.setTargetHotend(lcd_preheat_hotend_temp[1], 4);
// 1430             #endif // HOTENDS > 4
// 1431           #endif // HOTENDS > 3
// 1432         #endif // HOTENDS > 2
// 1433       #endif // HOTENDS > 1
// 1434       #if TEMP_SENSOR_BED != 0
// 1435         lcd_preheat_m2_e0();
// 1436       #else
// 1437         lcd_preheat_m2_e0_only();
// 1438       #endif
// 1439     }
// 1440 
// 1441   #endif // HOTENDS > 1
// 1442 
// 1443   #if TEMP_SENSOR_BED != 0

        SECTION `.text`:CODE:NOROOT(1)
          CFI Block cfiBlock53 Using cfiCommon0
          CFI Function _Z22lcd_preheat_m1_bedonlyv
        THUMB
// 1444     void lcd_preheat_m1_bedonly() { _lcd_preheat(0, 0, lcd_preheat_bed_temp[0], lcd_preheat_fan_speed[0]); }
_Z22lcd_preheat_m1_bedonlyv:
        LDR.W    R0,??DataTable146_3
        LDR      R3,[R0, #+52]
        SXTH     R3,R3
        LDR      R2,[R0, #+44]
        SXTH     R2,R2
        MOVS     R1,#+0
        MOV      R0,R1
          CFI FunCall _Z12_lcd_preheatisss
        B.N      _Z12_lcd_preheatisss
          CFI EndBlock cfiBlock53

        SECTION `.text`:CODE:NOROOT(1)
          CFI Block cfiBlock54 Using cfiCommon0
          CFI Function _Z22lcd_preheat_m2_bedonlyv
        THUMB
// 1445     void lcd_preheat_m2_bedonly() { _lcd_preheat(0, 0, lcd_preheat_bed_temp[1], lcd_preheat_fan_speed[1]); }
_Z22lcd_preheat_m2_bedonlyv:
        LDR.W    R0,??DataTable146_3
        LDR      R3,[R0, #+56]
        SXTH     R3,R3
        LDR      R2,[R0, #+48]
        SXTH     R2,R2
        MOVS     R1,#+0
        MOV      R0,R1
          CFI FunCall _Z12_lcd_preheatisss
        B.N      _Z12_lcd_preheatisss
          CFI EndBlock cfiBlock54

        SECTION `.text`:CODE:NOROOT(2)
        SECTION_TYPE SHT_PROGBITS, 0
        DATA
??DataTable134:
        DC32     mksEndStopsBuf

        SECTION `.text`:CODE:NOROOT(2)
        SECTION_TYPE SHT_PROGBITS, 0
        DATA
??DataTable134_1:
        DC32     mksReprint

        SECTION `.text`:CODE:NOROOT(2)
        SECTION_TYPE SHT_PROGBITS, 0
        DATA
??DataTable134_2:
        DC32     fanSpeeds

        SECTION `.text`:CODE:NOROOT(2)
        SECTION_TYPE SHT_PROGBITS, 0
        DATA
??DataTable134_3:
        DC32     0x40012c34

        SECTION `.text`:CODE:NOROOT(2)
        SECTION_TYPE SHT_PROGBITS, 0
        DATA
??DataTable134_4:
        DC32     wait_for_heatup

        SECTION `.text`:CODE:NOROOT(2)
        SECTION_TYPE SHT_PROGBITS, 0
        DATA
??DataTable134_5:
        DC32     row_y1
// 1446   #endif
// 1447 
// 1448   #if TEMP_SENSOR_0 != 0 && (TEMP_SENSOR_1 != 0 || TEMP_SENSOR_2 != 0 || TEMP_SENSOR_3 != 0 || TEMP_SENSOR_BED != 0)
// 1449 

        SECTION `.text`:CODE:NOROOT(1)
          CFI Block cfiBlock55 Using cfiCommon0
          CFI Function _Z19lcd_preheat_m1_menuv
        THUMB
// 1450     void lcd_preheat_m1_menu() {
_Z19lcd_preheat_m1_menuv:
        PUSH     {R3-R7,LR}
          CFI R14 Frame(CFA, -4)
          CFI R7 Frame(CFA, -8)
          CFI R6 Frame(CFA, -12)
          CFI R5 Frame(CFA, -16)
          CFI R4 Frame(CFA, -20)
          CFI CFA R13+24
// 1451       START_MENU();
        LDR.W    R6,??DataTable146_3
        MOVS     R0,#+0
        STRB     R0,[R6, #+9]
        LDR      R0,[R6, #+72]
        MOVW     R1,#+32769
        CMP      R0,R1
        BCC.N    ??lcd_preheat_m1_menu_0
        MOVS     R0,#+0
        STR      R0,[R6, #+72]
??lcd_preheat_m1_menu_0:
        LDRSB    R4,[R6, #+72]
        LDRSB    R0,[R6, #+21]
        MOV      R1,R0
        CMP      R1,#+0
        BLE.N    ??lcd_preheat_m1_menu_1
        SUBS     R1,R1,#+1
        CMP      R4,R1
        BLT.N    ??lcd_preheat_m1_menu_1
        CMP      R1,#+0
        BPL.N    ??lcd_preheat_m1_menu_2
        MOVS     R4,#+0
        B.N      ??lcd_preheat_m1_menu_3
??lcd_preheat_m1_menu_2:
        SUBS     R4,R0,#+1
        SXTB     R4,R4
??lcd_preheat_m1_menu_3:
        STR      R4,[R6, #+72]
??lcd_preheat_m1_menu_1:
        MOVS     R0,#+0
        STRB     R0,[R6, #+16]
        LDRSB    R0,[R6, #+14]
        CMP      R4,R0
        BGE.N    ??lcd_preheat_m1_menu_4
        STRB     R4,[R6, #+14]
??lcd_preheat_m1_menu_4:
        LDRSB    R0,[R6, #+14]
        ADDS     R0,R0,#+4
        CMP      R4,R0
        BLT.N    ??lcd_preheat_m1_menu_5
        MOV      R0,R4
        SUBS     R0,R0,#+3
        STRB     R0,[R6, #+14]
??lcd_preheat_m1_menu_5:
        LDRSB    R5,[R6, #+14]
        MOVS     R7,#+0
        B.N      ??lcd_preheat_m1_menu_6
// 1452       MENU_BACK(MSG_PREPARE);
// 1453       #if HOTENDS == 1
// 1454         #if TEMP_SENSOR_BED != 0
// 1455           MENU_ITEM(function, MSG_PREHEAT_1, lcd_preheat_m1_e0);
??lcd_preheat_m1_menu_7:
        CMP      R5,#+1
        BNE.N    ??lcd_preheat_m1_menu_8
        LDRB     R0,[R6, #+2]
        CMP      R0,#+0
        BEQ.N    ??lcd_preheat_m1_menu_9
        CMP      R4,#+1
        BNE.N    ??lcd_preheat_m1_menu_10
        MOVS     R0,#+1
??lcd_preheat_m1_menu_11:
        MOVS     R1,#+32
        STR      R1,[SP, #+0]
        MOVS     R3,#+62
        LDR.W    R2,??DataTable146_4
        MOV      R1,R7
        UXTB     R1,R1
          CFI FunCall _ZN34_INTERNAL_12_ultralcd_cpp_6629db9235lcd_implementation_drawmenu_genericEbhPKccc
        BL       _ZN34_INTERNAL_12_ultralcd_cpp_6629db9235lcd_implementation_drawmenu_genericEbhPKccc
??lcd_preheat_m1_menu_9:
        LDRB     R0,[R6, #+11]
        CMP      R0,#+0
        BEQ.N    ??lcd_preheat_m1_menu_8
        CMP      R4,#+1
        BNE.N    ??lcd_preheat_m1_menu_8
        LDR.W    R0,??DataTable146_5
          CFI FunCall _Z20menu_action_functionPFvvE
        BL       _Z20menu_action_functionPFvvE
        LDRB     R0,[R6, #+16]
        CMP      R0,#+0
        BNE.N    ??lcd_preheat_m1_menu_12
// 1456           MENU_ITEM(function, MSG_PREHEAT_1_END, lcd_preheat_m1_e0_only);
??lcd_preheat_m1_menu_8:
        CMP      R5,#+2
        BNE.N    ??lcd_preheat_m1_menu_13
        LDRB     R0,[R6, #+2]
        CMP      R0,#+0
        BEQ.N    ??lcd_preheat_m1_menu_14
        CMP      R4,#+2
        BNE.N    ??lcd_preheat_m1_menu_15
        MOVS     R0,#+1
??lcd_preheat_m1_menu_16:
        MOVS     R1,#+32
        STR      R1,[SP, #+0]
        MOVS     R3,#+62
        LDR.W    R2,??DataTable146_6
        MOV      R1,R7
        UXTB     R1,R1
          CFI FunCall _ZN34_INTERNAL_12_ultralcd_cpp_6629db9235lcd_implementation_drawmenu_genericEbhPKccc
        BL       _ZN34_INTERNAL_12_ultralcd_cpp_6629db9235lcd_implementation_drawmenu_genericEbhPKccc
??lcd_preheat_m1_menu_14:
        LDRB     R0,[R6, #+11]
        CMP      R0,#+0
        BEQ.N    ??lcd_preheat_m1_menu_13
        CMP      R4,#+2
        BNE.N    ??lcd_preheat_m1_menu_13
        LDR.W    R0,??DataTable146_7
          CFI FunCall _Z20menu_action_functionPFvvE
        BL       _Z20menu_action_functionPFvvE
        LDRB     R0,[R6, #+16]
        CMP      R0,#+0
        BNE.N    ??lcd_preheat_m1_menu_12
// 1457         #else
// 1458           MENU_ITEM(function, MSG_PREHEAT_1, lcd_preheat_m1_e0_only);
// 1459         #endif
// 1460       #else
// 1461         #if TEMP_SENSOR_BED != 0
// 1462           MENU_ITEM(function, MSG_PREHEAT_1_N MSG_H1, lcd_preheat_m1_e0);
// 1463           MENU_ITEM(function, MSG_PREHEAT_1_END " " MSG_E1, lcd_preheat_m1_e0_only);
// 1464           MENU_ITEM(function, MSG_PREHEAT_1_N MSG_H2, lcd_preheat_m1_e1);
// 1465           MENU_ITEM(function, MSG_PREHEAT_1_END " " MSG_E2, lcd_preheat_m1_e1_only);
// 1466         #else
// 1467           MENU_ITEM(function, MSG_PREHEAT_1_N MSG_H1, lcd_preheat_m1_e0_only);
// 1468           MENU_ITEM(function, MSG_PREHEAT_1_N MSG_H2, lcd_preheat_m1_e1_only);
// 1469         #endif
// 1470         #if HOTENDS > 2
// 1471           #if TEMP_SENSOR_BED != 0
// 1472             MENU_ITEM(function, MSG_PREHEAT_1_N MSG_H3, lcd_preheat_m1_e2);
// 1473             MENU_ITEM(function, MSG_PREHEAT_1_END " " MSG_E3, lcd_preheat_m1_e2_only);
// 1474           #else
// 1475             MENU_ITEM(function, MSG_PREHEAT_1_N MSG_H3, lcd_preheat_m1_e2_only);
// 1476           #endif
// 1477           #if HOTENDS > 3
// 1478             #if TEMP_SENSOR_BED != 0
// 1479               MENU_ITEM(function, MSG_PREHEAT_1_N MSG_H4, lcd_preheat_m1_e3);
// 1480               MENU_ITEM(function, MSG_PREHEAT_1_END " " MSG_E4, lcd_preheat_m1_e3_only);
// 1481             #else
// 1482               MENU_ITEM(function, MSG_PREHEAT_1_N MSG_H4, lcd_preheat_m1_e3_only);
// 1483             #endif
// 1484             #if HOTENDS > 4
// 1485               #if TEMP_SENSOR_BED != 0
// 1486                 MENU_ITEM(function, MSG_PREHEAT_1_N MSG_H5, lcd_preheat_m1_e4);
// 1487                 MENU_ITEM(function, MSG_PREHEAT_1_END " " MSG_E5, lcd_preheat_m1_e4_only);
// 1488               #else
// 1489                 MENU_ITEM(function, MSG_PREHEAT_1_N MSG_H5, lcd_preheat_m1_e4_only);
// 1490               #endif
// 1491             #endif // HOTENDS > 4
// 1492           #endif // HOTENDS > 3
// 1493         #endif // HOTENDS > 2
// 1494         MENU_ITEM(function, MSG_PREHEAT_1_ALL, lcd_preheat_m1_all);
// 1495       #endif // HOTENDS > 1
// 1496       #if TEMP_SENSOR_BED != 0
// 1497         MENU_ITEM(function, MSG_PREHEAT_1_BEDONLY, lcd_preheat_m1_bedonly);
??lcd_preheat_m1_menu_13:
        CMP      R5,#+3
        BNE.N    ??lcd_preheat_m1_menu_17
        LDRB     R0,[R6, #+2]
        CMP      R0,#+0
        BEQ.N    ??lcd_preheat_m1_menu_18
        CMP      R4,#+3
        BNE.N    ??lcd_preheat_m1_menu_19
        MOVS     R0,#+1
??lcd_preheat_m1_menu_20:
        MOVS     R1,#+32
        STR      R1,[SP, #+0]
        MOVS     R3,#+62
        LDR.W    R2,??DataTable148
        MOV      R1,R7
        UXTB     R1,R1
          CFI FunCall _ZN34_INTERNAL_12_ultralcd_cpp_6629db9235lcd_implementation_drawmenu_genericEbhPKccc
        BL       _ZN34_INTERNAL_12_ultralcd_cpp_6629db9235lcd_implementation_drawmenu_genericEbhPKccc
??lcd_preheat_m1_menu_18:
        LDRB     R0,[R6, #+11]
        CMP      R0,#+0
        BEQ.N    ??lcd_preheat_m1_menu_17
        CMP      R4,#+3
        BNE.N    ??lcd_preheat_m1_menu_17
        LDR.W    R0,??DataTable150
          CFI FunCall _Z20menu_action_functionPFvvE
        BL       _Z20menu_action_functionPFvvE
        LDRB     R0,[R6, #+16]
        CMP      R0,#+0
        BNE.N    ??lcd_preheat_m1_menu_12
??lcd_preheat_m1_menu_17:
        MOVS     R0,#+4
        ADDS     R7,R7,#+1
        SXTB     R7,R7
        ADDS     R5,R5,#+1
        SXTB     R5,R5
??lcd_preheat_m1_menu_6:
        CMP      R7,#+4
        BGE.N    ??lcd_preheat_m1_menu_21
        CMP      R5,#+0
        BNE.N    ??lcd_preheat_m1_menu_7
        LDRB     R0,[R6, #+2]
        CMP      R0,#+0
        BEQ.N    ??lcd_preheat_m1_menu_22
        MOV      R0,R4
        SUBS     R0,R0,#+1
        SBCS     R0,R0,R0
        LSRS     R0,R0,#+31
        MOVS     R1,#+4
        STR      R1,[SP, #+0]
        MOV      R3,R1
        LDR.N    R2,??DataTable135_8
        MOV      R1,R7
        UXTB     R1,R1
          CFI FunCall _ZN34_INTERNAL_12_ultralcd_cpp_6629db9235lcd_implementation_drawmenu_genericEbhPKccc
        BL       _ZN34_INTERNAL_12_ultralcd_cpp_6629db9235lcd_implementation_drawmenu_genericEbhPKccc
??lcd_preheat_m1_menu_22:
        LDRB     R0,[R6, #+11]
        CMP      R0,#+0
        BEQ.N    ??lcd_preheat_m1_menu_7
        CMP      R4,#+0
        BNE.N    ??lcd_preheat_m1_menu_7
          CFI FunCall _Z17_menu_action_backv
        BL       _Z17_menu_action_backv
        LDRB     R0,[R6, #+16]
        CMP      R0,#+0
        BEQ.N    ??lcd_preheat_m1_menu_7
        POP      {R0,R4-R7,PC}
// 1498       #endif
// 1499       END_MENU();
??lcd_preheat_m1_menu_10:
        MOVS     R0,#+0
        B.N      ??lcd_preheat_m1_menu_11
??lcd_preheat_m1_menu_15:
        MOVS     R0,#+0
        B.N      ??lcd_preheat_m1_menu_16
??lcd_preheat_m1_menu_19:
        MOVS     R0,#+0
        B.N      ??lcd_preheat_m1_menu_20
??lcd_preheat_m1_menu_21:
        STRB     R0,[R6, #+21]
// 1500     }
??lcd_preheat_m1_menu_12:
        POP      {R0,R4-R7,PC}    ;; return
          CFI EndBlock cfiBlock55

        SECTION `.text`:CODE:NOROOT(2)
        SECTION_TYPE SHT_PROGBITS, 0
        DATA
??DataTable135:
        DC32     buzzer

        SECTION `.text`:CODE:NOROOT(2)
        SECTION_TYPE SHT_PROGBITS, 0
        DATA
??DataTable135_1:
        DC32     MSG_PRINT_ABORTED

        SECTION `.text`:CODE:NOROOT(2)
        SECTION_TYPE SHT_PROGBITS, 0
        DATA
??DataTable135_2:
        DC32     card

        SECTION `.text`:CODE:NOROOT(2)
        SECTION_TYPE SHT_PROGBITS, 0
        DATA
??DataTable135_3:
        DC32     ?_13

        SECTION `.text`:CODE:NOROOT(2)
        SECTION_TYPE SHT_PROGBITS, 0
        DATA
??DataTable135_4:
        DC32     _Z13lcd_wifi_infov

        SECTION `.text`:CODE:NOROOT(2)
        SECTION_TYPE SHT_PROGBITS, 0
        DATA
??DataTable135_5:
        DC32     MSG_INFO_MENU

        SECTION `.text`:CODE:NOROOT(2)
        SECTION_TYPE SHT_PROGBITS, 0
        DATA
??DataTable135_6:
        DC32     _Z13lcd_info_menuv

        SECTION `.text`:CODE:NOROOT(2)
        SECTION_TYPE SHT_PROGBITS, 0
        DATA
??DataTable135_7:
        DC32     MSG_WATCH

        SECTION `.text`:CODE:NOROOT(2)
        SECTION_TYPE SHT_PROGBITS, 0
        DATA
??DataTable135_8:
        DC32     MSG_PREPARE

        SECTION `.text`:CODE:NOROOT(2)
        SECTION_TYPE SHT_PROGBITS, 0
        DATA
??DataTable135_9:
        DC32     _Z16lcd_prepare_menuv
// 1501 

        SECTION `.text`:CODE:NOROOT(1)
          CFI Block cfiBlock56 Using cfiCommon0
          CFI Function _Z19lcd_preheat_m2_menuv
        THUMB
// 1502     void lcd_preheat_m2_menu() {
_Z19lcd_preheat_m2_menuv:
        PUSH     {R3-R7,LR}
